
obj/FreeRtos:     file format elf32-littlearm


Disassembly of section VECTORS:

42000000 <Start>:
42000000:	e59ff018 	ldr	pc, [pc, #24]	; 42000020 <Start+0x20>
42000004:	e59ff018 	ldr	pc, [pc, #24]	; 42000024 <Start+0x24>
42000008:	e59ff018 	ldr	pc, [pc, #24]	; 42000028 <Start+0x28>
4200000c:	e59ff018 	ldr	pc, [pc, #24]	; 4200002c <Start+0x2c>
42000010:	e59ff018 	ldr	pc, [pc, #24]	; 42000030 <Start+0x30>
42000014:	e59ff018 	ldr	pc, [pc, #24]	; 42000034 <Start+0x34>
42000018:	e59ff018 	ldr	pc, [pc, #24]	; 42000038 <Start+0x38>
4200001c:	e59ff018 	ldr	pc, [pc, #24]	; 4200003c <Start+0x3c>
42000020:	42000094 	andmi	r0, r0, #148	; 0x94
42000024:	42000040 	andmi	r0, r0, #64	; 0x40
42000028:	42000048 	andmi	r0, r0, #72	; 0x48
4200002c:	4200004c 	andmi	r0, r0, #76	; 0x4c
42000030:	4200005c 	andmi	r0, r0, #92	; 0x5c
42000034:	4200006c 	andmi	r0, r0, #108	; 0x6c
42000038:	4200007c 	andmi	r0, r0, #124	; 0x7c
4200003c:	42000080 	andmi	r0, r0, #128	; 0x80

42000040 <Undefined_Handler>:
42000040:	e59fd09c 	ldr	sp, [pc, #156]	; 420000e4 <Reset_Handler+0x50>
42000044:	ea000012 	b	42000094 <Reset_Handler>

42000048 <SVC_Handler>:
42000048:	ea0015ac 	b	42005700 <FreeRTOS_SWI_Handler>

4200004c <Prefetch_Handler>:
4200004c:	e25ef004 	subs	pc, lr, #4
42000050:	e92d5fff 	push	{r0, r1, r2, r3, r4, r5, r6, r7, r8, r9, sl, fp, ip, lr}
42000054:	eb00114f 	bl	42004598 <PreFetchInterruptHandler>
42000058:	e8fd9fff 	ldm	sp!, {r0, r1, r2, r3, r4, r5, r6, r7, r8, r9, sl, fp, ip, pc}^

4200005c <Abort_Handler>:
4200005c:	e25ef008 	subs	pc, lr, #8
42000060:	e92d5fff 	push	{r0, r1, r2, r3, r4, r5, r6, r7, r8, r9, sl, fp, ip, lr}
42000064:	eb00114d 	bl	420045a0 <AbortInterruptHandler>
42000068:	e8fd9fff 	ldm	sp!, {r0, r1, r2, r3, r4, r5, r6, r7, r8, r9, sl, fp, ip, pc}^

4200006c <Hypervisor_Handler>:
4200006c:	e24ee004 	sub	lr, lr, #4
42000070:	e92d5fff 	push	{r0, r1, r2, r3, r4, r5, r6, r7, r8, r9, sl, fp, ip, lr}
42000074:	eb00114b 	bl	420045a8 <HypervisorInterruptHandler>
42000078:	e8fd9fff 	ldm	sp!, {r0, r1, r2, r3, r4, r5, r6, r7, r8, r9, sl, fp, ip, pc}^

4200007c <IRQ_Handler>:
4200007c:	ea0015dd 	b	420057f8 <FreeRTOS_IRQ_Handler>

42000080 <FIQ_Handler>:
42000080:	e24ee004 	sub	lr, lr, #4
42000084:	e92d40ff 	push	{r0, r1, r2, r3, r4, r5, r6, r7, lr}
42000088:	eb001140 	bl	42004590 <FIQInterruptHandler>
4200008c:	e8fd80ff 	ldm	sp!, {r0, r1, r2, r3, r4, r5, r6, r7, pc}^
42000090:	44090000 	strmi	r0, [r9], #-0

42000094 <Reset_Handler>:
42000094:	e51f000c 	ldr	r0, [pc, #-12]	; 42000090 <FIQ_Handler+0x10>
42000098:	e321f0d1 	msr	CPSR_c, #209	; 0xd1
4200009c:	e1a0d000 	mov	sp, r0
420000a0:	e2400a02 	sub	r0, r0, #8192	; 0x2000
420000a4:	e321f0d2 	msr	CPSR_c, #210	; 0xd2
420000a8:	e1a0d000 	mov	sp, r0
420000ac:	e2400a02 	sub	r0, r0, #8192	; 0x2000
420000b0:	e321f0d3 	msr	CPSR_c, #211	; 0xd3
420000b4:	e1a0d000 	mov	sp, r0
420000b8:	e59f0028 	ldr	r0, [pc, #40]	; 420000e8 <Reset_Handler+0x54>
420000bc:	ee0c0f10 	mcr	15, 0, r0, cr12, cr0, {0}
420000c0:	f57ff04f 	dsb	sy
420000c4:	f57ff06f 	isb	sy
420000c8:	ee110f50 	mrc	15, 0, r0, cr1, cr0, {2}
420000cc:	e380060f 	orr	r0, r0, #15728640	; 0xf00000
420000d0:	ee010f50 	mcr	15, 0, r0, cr1, cr0, {2}
420000d4:	f57ff06f 	isb	sy
420000d8:	e3a00101 	mov	r0, #1073741824	; 0x40000000
420000dc:	eee80a10 	vmsr	fpexc, r0
420000e0:	ea0000fa 	b	420004d0 <main>
420000e4:	44090000 	strmi	r0, [r9], #-0
420000e8:	42000000 	andmi	r0, r0, #0

420000ec <__main>:
420000ec:	fa000000 	blx	420000f4 <__scatterload>
420000f0:	fa000029 	blx	4200019c <__rt_entry>

420000f4 <__scatterload>:
420000f4:	a00a      	add	r0, pc, #40	; (adr r0, 42000120 <__scatterload_null+0x1e>)
420000f6:	e890 0c00 	ldmia.w	r0, {sl, fp}
420000fa:	4482      	add	sl, r0
420000fc:	4483      	add	fp, r0
420000fe:	f1aa 0701 	sub.w	r7, sl, #1

42000102 <__scatterload_null>:
42000102:	45da      	cmp	sl, fp
42000104:	d101      	bne.n	4200010a <__scatterload_null+0x8>
42000106:	f000 f849 	bl	4200019c <__rt_entry>
4200010a:	f2af 0e09 	subw	lr, pc, #9
4200010e:	e8ba 000f 	ldmia.w	sl!, {r0, r1, r2, r3}
42000112:	f013 0f01 	tst.w	r3, #1
42000116:	bf18      	it	ne
42000118:	1afb      	subne	r3, r7, r3
4200011a:	f043 0301 	orr.w	r3, r3, #1
4200011e:	4718      	bx	r3
42000120:	00000024 	andeq	r0, r0, r4, lsr #32
42000124:	00000034 	andeq	r0, r0, r4, lsr r0

42000128 <__scatterload_zeroinit>:
42000128:	2300      	movs	r3, #0
4200012a:	2400      	movs	r4, #0
4200012c:	2500      	movs	r5, #0
4200012e:	2600      	movs	r6, #0
42000130:	3a10      	subs	r2, #16
42000132:	bf28      	it	cs
42000134:	c178      	stmiacs	r1!, {r3, r4, r5, r6}
42000136:	d8fb      	bhi.n	42000130 <__scatterload_zeroinit+0x8>
42000138:	0752      	lsls	r2, r2, #29
4200013a:	bf28      	it	cs
4200013c:	c130      	stmiacs	r1!, {r4, r5}
4200013e:	bf48      	it	mi
42000140:	600b      	strmi	r3, [r1, #0]
42000142:	4770      	bx	lr

42000144 <Region$$Table$$Base>:
42000144:	42005a68 	andmi	r5, r0, #104, 20	; 0x68000
42000148:	42005a68 	andmi	r5, r0, #104, 20	; 0x68000
4200014c:	00017728 	andeq	r7, r1, r8, lsr #14
42000150:	42000128 	andmi	r0, r0, #40, 2

Disassembly of section RO_CODE:

42000154 <_printf_d>:
42000154:	2964      	cmp	r1, #100	; 0x64
42000156:	f004 8307 	beq.w	42004768 <_printf_int_dec>

4200015a <_printf_u>:
4200015a:	2975      	cmp	r1, #117	; 0x75
4200015c:	f004 8304 	beq.w	42004768 <_printf_int_dec>

42000160 <_printf_x>:
42000160:	2978      	cmp	r1, #120	; 0x78
42000162:	f004 833b 	beq.w	420047dc <_printf_int_hex>

42000166 <_printf_c>:
42000166:	2963      	cmp	r1, #99	; 0x63
42000168:	f004 8631 	beq.w	42004dce <_printf_char>

4200016c <_printf_s>:
4200016c:	2973      	cmp	r1, #115	; 0x73
4200016e:	f004 8636 	beq.w	42004dde <_printf_string>

42000172 <_printf_percent_end>:
42000172:	2000      	movs	r0, #0
42000174:	4770      	bx	lr

42000176 <__rt_lib_init>:
42000176:	b51f      	push	{r0, r1, r2, r3, r4, lr}
42000178:	f005 fc05 	bl	42005986 <_fp_init>

4200017c <__rt_lib_init_heap_2>:
4200017c:	4803      	ldr	r0, [pc, #12]	; (4200018c <__lit__00000000>)
4200017e:	4904      	ldr	r1, [pc, #16]	; (42000190 <__lit__00000001>)
42000180:	f005 f89d 	bl	420052be <_init_alloc>

42000184 <__rt_lib_init_atexit_1>:
42000184:	f004 febc 	bl	42004f00 <_initio>

42000188 <__rt_lib_init_alloca_1>:
42000188:	bd1f      	pop	{r0, r1, r2, r3, r4, pc}
	...

4200018c <__lit__00000000>:
4200018c:	43040000 	movwmi	r0, #16384	; 0x4000

42000190 <__lit__00000001>:
42000190:	43080000 	movwmi	r0, #32768	; 0x8000

42000194 <__rt_lib_shutdown>:
42000194:	b510      	push	{r4, lr}

42000196 <__rt_lib_shutdown_stdio_2>:
42000196:	f004 ff1c 	bl	42004fd2 <_terminateio>

4200019a <__rt_lib_shutdown_fp_trap_1>:
4200019a:	bd10      	pop	{r4, pc}

4200019c <__rt_entry>:
4200019c:	f8df d00c 	ldr.w	sp, [pc, #12]	; 420001ac <__lit__00000000>

420001a0 <__rt_entry_li>:
420001a0:	f7ff ffe9 	bl	42000176 <__rt_lib_init>

420001a4 <__rt_entry_main>:
420001a4:	f000 e994 	blx	420004d0 <main>
420001a8:	f005 f860 	bl	4200526c <exit>

420001ac <__lit__00000000>:
420001ac:	44090000 	strmi	r0, [r9], #-0

420001b0 <__rt_exit>:
420001b0:	b403      	push	{r0, r1}

420001b2 <__rt_exit_ls>:
420001b2:	f7ff ffef 	bl	42000194 <__rt_lib_shutdown>

420001b6 <__rt_exit_exit>:
420001b6:	bc03      	pop	{r0, r1}
420001b8:	f005 f9f4 	bl	420055a4 <_sys_exit>

420001bc <_maybe_terminate_alloc>:
420001bc:	e92d41f0 	push	{r4, r5, r6, r7, r8, lr}
420001c0:	e1a04000 	mov	r4, r0
420001c4:	e3a05000 	mov	r5, #0
420001c8:	eb000816 	bl	42002228 <vTaskSuspendAll>
420001cc:	e59f6164 	ldr	r6, [pc, #356]	; 42000338 <vPortInitialiseBlocks+0x4>
420001d0:	e2861008 	add	r1, r6, #8
420001d4:	e2863010 	add	r3, r6, #16
420001d8:	e5960004 	ldr	r0, [r6, #4]
420001dc:	e3500000 	cmp	r0, #0
420001e0:	1a000008 	bne	42000208 <_maybe_terminate_alloc+0x4c>
420001e4:	e3a02000 	mov	r2, #0
420001e8:	e59f014c 	ldr	r0, [pc, #332]	; 4200033c <vPortInitialiseBlocks+0x8>
420001ec:	e59f714c 	ldr	r7, [pc, #332]	; 42000340 <vPortInitialiseBlocks+0xc>
420001f0:	e3c00007 	bic	r0, r0, #7
420001f4:	e8810005 	stm	r1, {r0, r2}
420001f8:	e8830084 	stm	r3, {r2, r7}
420001fc:	e8800088 	stm	r0, {r3, r7}
42000200:	e3a00001 	mov	r0, #1
42000204:	e5860004 	str	r0, [r6, #4]
42000208:	e3540000 	cmp	r4, #0
4200020c:	12844008 	addne	r4, r4, #8
42000210:	e59f212c 	ldr	r2, [pc, #300]	; 42000344 <vPortInitialiseBlocks+0x10>
42000214:	13140007 	tstne	r4, #7
42000218:	12040007 	andne	r0, r4, #7
4200021c:	12600008 	rsbne	r0, r0, #8
42000220:	10844000 	addne	r4, r4, r0
42000224:	e2440001 	sub	r0, r4, #1
42000228:	e1500002 	cmp	r0, r2
4200022c:	359f2114 	ldrcc	r2, [pc, #276]	; 42000348 <vPortInitialiseBlocks+0x14>
42000230:	35910000 	ldrcc	r0, [r1]
42000234:	2a000021 	bcs	420002c0 <_maybe_terminate_alloc+0x104>
42000238:	e5901004 	ldr	r1, [r0, #4]
4200023c:	e1540001 	cmp	r4, r1
42000240:	9a000004 	bls	42000258 <_maybe_terminate_alloc+0x9c>
42000244:	e5901000 	ldr	r1, [r0]
42000248:	e3510000 	cmp	r1, #0
4200024c:	11a02000 	movne	r2, r0
42000250:	11a00001 	movne	r0, r1
42000254:	1afffff7 	bne	42000238 <_maybe_terminate_alloc+0x7c>
42000258:	e1500003 	cmp	r0, r3
4200025c:	0a000017 	beq	420002c0 <_maybe_terminate_alloc+0x104>
42000260:	e5921000 	ldr	r1, [r2]
42000264:	e2815008 	add	r5, r1, #8
42000268:	e5901000 	ldr	r1, [r0]
4200026c:	e5821000 	str	r1, [r2]
42000270:	e5901004 	ldr	r1, [r0, #4]
42000274:	e0411004 	sub	r1, r1, r4
42000278:	e3510010 	cmp	r1, #16
4200027c:	9a00000b 	bls	420002b0 <_maybe_terminate_alloc+0xf4>
42000280:	e0803004 	add	r3, r0, r4
42000284:	e5831004 	str	r1, [r3, #4]
42000288:	e5804004 	str	r4, [r0, #4]
4200028c:	e59f10b4 	ldr	r1, [pc, #180]	; 42000348 <vPortInitialiseBlocks+0x14>
42000290:	e5934004 	ldr	r4, [r3, #4]
42000294:	e5912000 	ldr	r2, [r1]
42000298:	e5927004 	ldr	r7, [r2, #4]
4200029c:	e1570004 	cmp	r7, r4
420002a0:	25832000 	strcs	r2, [r3]
420002a4:	31a01002 	movcc	r1, r2
420002a8:	25813000 	strcs	r3, [r1]
420002ac:	3afffff8 	bcc	42000294 <_maybe_terminate_alloc+0xd8>
420002b0:	e5900004 	ldr	r0, [r0, #4]
420002b4:	e5961000 	ldr	r1, [r6]
420002b8:	e0410000 	sub	r0, r1, r0
420002bc:	e5860000 	str	r0, [r6]
420002c0:	eb000762 	bl	42002050 <xTaskResumeAll>
420002c4:	e3550000 	cmp	r5, #0
420002c8:	0b00012b 	bleq	4200077c <vApplicationMallocFailedHook>
420002cc:	e1a00005 	mov	r0, r5
420002d0:	e8bd81f0 	pop	{r4, r5, r6, r7, r8, pc}

420002d4 <vPortFree>:
420002d4:	e92d4010 	push	{r4, lr}
420002d8:	e3500000 	cmp	r0, #0
420002dc:	08bd8010 	popeq	{r4, pc}
420002e0:	e2404008 	sub	r4, r0, #8
420002e4:	eb0007cf 	bl	42002228 <vTaskSuspendAll>
420002e8:	e59f0058 	ldr	r0, [pc, #88]	; 42000348 <vPortInitialiseBlocks+0x14>
420002ec:	e5942004 	ldr	r2, [r4, #4]
420002f0:	e5901000 	ldr	r1, [r0]
420002f4:	e5913004 	ldr	r3, [r1, #4]
420002f8:	e1530002 	cmp	r3, r2
420002fc:	31a00001 	movcc	r0, r1
42000300:	3afffffa 	bcc	420002f0 <vPortFree+0x1c>
42000304:	e5841000 	str	r1, [r4]
42000308:	e5804000 	str	r4, [r0]
4200030c:	e59f0024 	ldr	r0, [pc, #36]	; 42000338 <vPortInitialiseBlocks+0x4>
42000310:	e5941004 	ldr	r1, [r4, #4]
42000314:	e5902000 	ldr	r2, [r0]
42000318:	e0811002 	add	r1, r1, r2
4200031c:	e5801000 	str	r1, [r0]
42000320:	e8bd4010 	pop	{r4, lr}
42000324:	ea000749 	b	42002050 <xTaskResumeAll>

42000328 <xPortGetFreeHeapSize>:
42000328:	e59f0008 	ldr	r0, [pc, #8]	; 42000338 <vPortInitialiseBlocks+0x4>
4200032c:	e5900000 	ldr	r0, [r0]
42000330:	e12fff1e 	bx	lr

42000334 <vPortInitialiseBlocks>:
42000334:	e12fff1e 	bx	lr
42000338:	420059d8 	andmi	r5, r0, #216, 18	; 0x360000
4200033c:	42005a70 	andmi	r5, r0, #112, 20	; 0x70000
42000340:	000167f8 	strdeq	r6, [r1], -r8
42000344:	000167f7 	strdeq	r6, [r1], -r7
42000348:	420059e0 	andmi	r5, r0, #224, 18	; 0x380000

4200034c <vListInitialise>:
4200034c:	e2803004 	add	r3, r0, #4
42000350:	e2801008 	add	r1, r0, #8
42000354:	e3e02000 	mvn	r2, #0
42000358:	e8830006 	stm	r3, {r1, r2}
4200035c:	e580100c 	str	r1, [r0, #12]
42000360:	e5801010 	str	r1, [r0, #16]
42000364:	e3a01000 	mov	r1, #0
42000368:	e5801000 	str	r1, [r0]
4200036c:	e12fff1e 	bx	lr

42000370 <vListInitialiseItem>:
42000370:	e3a01000 	mov	r1, #0
42000374:	e5801010 	str	r1, [r0, #16]
42000378:	e12fff1e 	bx	lr

4200037c <vListInsertEnd>:
4200037c:	e5902004 	ldr	r2, [r0, #4]
42000380:	e5812004 	str	r2, [r1, #4]
42000384:	e5923008 	ldr	r3, [r2, #8]
42000388:	e5813008 	str	r3, [r1, #8]
4200038c:	e5923008 	ldr	r3, [r2, #8]
42000390:	e5831004 	str	r1, [r3, #4]
42000394:	e5821008 	str	r1, [r2, #8]
42000398:	e5810010 	str	r0, [r1, #16]
4200039c:	e5901000 	ldr	r1, [r0]
420003a0:	e2811001 	add	r1, r1, #1
420003a4:	e5801000 	str	r1, [r0]
420003a8:	e12fff1e 	bx	lr

420003ac <vListInsert>:
420003ac:	e92d4010 	push	{r4, lr}
420003b0:	e591c000 	ldr	ip, [r1]
420003b4:	e37c0001 	cmn	ip, #1
420003b8:	05902010 	ldreq	r2, [r0, #16]
420003bc:	12802008 	addne	r2, r0, #8
420003c0:	0a000004 	beq	420003d8 <vListInsert+0x2c>
420003c4:	e5923004 	ldr	r3, [r2, #4]
420003c8:	e5934000 	ldr	r4, [r3]
420003cc:	e154000c 	cmp	r4, ip
420003d0:	91a02003 	movls	r2, r3
420003d4:	9afffffa 	bls	420003c4 <vListInsert+0x18>
420003d8:	e5923004 	ldr	r3, [r2, #4]
420003dc:	e5813004 	str	r3, [r1, #4]
420003e0:	e5831008 	str	r1, [r3, #8]
420003e4:	e5812008 	str	r2, [r1, #8]
420003e8:	e5821004 	str	r1, [r2, #4]
420003ec:	e5810010 	str	r0, [r1, #16]
420003f0:	e5901000 	ldr	r1, [r0]
420003f4:	e2811001 	add	r1, r1, #1
420003f8:	e5801000 	str	r1, [r0]
420003fc:	e8bd8010 	pop	{r4, pc}

42000400 <uxListRemove>:
42000400:	e5903004 	ldr	r3, [r0, #4]
42000404:	e5902008 	ldr	r2, [r0, #8]
42000408:	e5901010 	ldr	r1, [r0, #16]
4200040c:	e5832008 	str	r2, [r3, #8]
42000410:	e1c020d4 	ldrd	r2, [r0, #4]
42000414:	e5832004 	str	r2, [r3, #4]
42000418:	e5912004 	ldr	r2, [r1, #4]
4200041c:	e1520000 	cmp	r2, r0
42000420:	05902008 	ldreq	r2, [r0, #8]
42000424:	05812004 	streq	r2, [r1, #4]
42000428:	e3a02000 	mov	r2, #0
4200042c:	e5802010 	str	r2, [r0, #16]
42000430:	e5910000 	ldr	r0, [r1]
42000434:	e2400001 	sub	r0, r0, #1
42000438:	e5810000 	str	r0, [r1]
4200043c:	e5910000 	ldr	r0, [r1]
42000440:	e12fff1e 	bx	lr

42000444 <prvQueueReceiveTask>:
42000444:	e92d4008 	push	{r3, lr}
42000448:	e28f0f6d 	add	r0, pc, #436	; 0x1b4
4200044c:	fa00108c 	blx	42004684 <__2printf>
42000450:	e59f41c8 	ldr	r4, [pc, #456]	; 42000620 <vApplicationGetIdleTaskMemory+0x50>
42000454:	e3e02000 	mvn	r2, #0
42000458:	e1a0100d 	mov	r1, sp
4200045c:	e5940000 	ldr	r0, [r4]
42000460:	eb000435 	bl	4200153c <xQueueReceive>
42000464:	e59d1000 	ldr	r1, [sp]
42000468:	e28f0f6d 	add	r0, pc, #436	; 0x1b4
4200046c:	fa001084 	blx	42004684 <__2printf>
42000470:	eafffff7 	b	42000454 <prvQueueReceiveTask+0x10>

42000474 <prvQueueSendTask>:
42000474:	e92d401c 	push	{r2, r3, r4, lr}
42000478:	e3a00064 	mov	r0, #100	; 0x64
4200047c:	e58d0000 	str	r0, [sp]
42000480:	eb00091e 	bl	42002900 <xTaskGetTickCount>
42000484:	e58d0004 	str	r0, [sp, #4]
42000488:	e28f0e1b 	add	r0, pc, #432	; 0x1b0
4200048c:	fa00107c 	blx	42004684 <__2printf>
42000490:	e59f4188 	ldr	r4, [pc, #392]	; 42000620 <vApplicationGetIdleTaskMemory+0x50>
42000494:	e3a01ffa 	mov	r1, #1000	; 0x3e8
42000498:	e28d0004 	add	r0, sp, #4
4200049c:	eb000766 	bl	4200223c <vTaskDelayUntil>
420004a0:	e59d1000 	ldr	r1, [sp]
420004a4:	e28f0e1b 	add	r0, pc, #432	; 0x1b0
420004a8:	fa001075 	blx	42004684 <__2printf>
420004ac:	e5940000 	ldr	r0, [r4]
420004b0:	e3a03000 	mov	r3, #0
420004b4:	e1a02003 	mov	r2, r3
420004b8:	e1a0100d 	mov	r1, sp
420004bc:	eb00025a 	bl	42000e2c <xQueueGenericSend>
420004c0:	e59d0000 	ldr	r0, [sp]
420004c4:	e2800001 	add	r0, r0, #1
420004c8:	e58d0000 	str	r0, [sp]
420004cc:	eafffff0 	b	42000494 <prvQueueSendTask+0x20>

420004d0 <main>:
420004d0:	e92d401c 	push	{r2, r3, r4, lr}
420004d4:	eb000ffa 	bl	420044c4 <UtilityInit>
420004d8:	e28f0f65 	add	r0, pc, #404	; 0x194
420004dc:	fa001068 	blx	42004684 <__2printf>
420004e0:	e3a02000 	mov	r2, #0
420004e4:	e3a01004 	mov	r1, #4
420004e8:	e3a00001 	mov	r0, #1
420004ec:	eb0001ac 	bl	42000ba4 <xQueueGenericCreate>
420004f0:	e59f1128 	ldr	r1, [pc, #296]	; 42000620 <vApplicationGetIdleTaskMemory+0x50>
420004f4:	e3500000 	cmp	r0, #0
420004f8:	e5810000 	str	r0, [r1]
420004fc:	0a00000f 	beq	42000540 <main+0x70>
42000500:	e3a04000 	mov	r4, #0
42000504:	e3a00002 	mov	r0, #2
42000508:	e88d0011 	stm	sp, {r0, r4}
4200050c:	e1a03004 	mov	r3, r4
42000510:	e59f0174 	ldr	r0, [pc, #372]	; 4200068c <vApplicationGetIdleTaskMemory+0xbc>
42000514:	e3a020fa 	mov	r2, #250	; 0xfa
42000518:	e28f1f5a 	add	r1, pc, #360	; 0x168
4200051c:	eb00061b 	bl	42001d90 <xTaskCreate>
42000520:	e3a00001 	mov	r0, #1
42000524:	e3a03000 	mov	r3, #0
42000528:	e88d0011 	stm	sp, {r0, r4}
4200052c:	e3a020fa 	mov	r2, #250	; 0xfa
42000530:	e59f015c 	ldr	r0, [pc, #348]	; 42000694 <vApplicationGetIdleTaskMemory+0xc4>
42000534:	e28f1f55 	add	r1, pc, #340	; 0x154
42000538:	eb000614 	bl	42001d90 <xTaskCreate>
4200053c:	eb0008c9 	bl	42002868 <vTaskStartScheduler>
42000540:	eafffffe 	b	42000540 <main+0x70>

42000544 <vAssertCalled>:
42000544:	e92d4070 	push	{r4, r5, r6, lr}
42000548:	e1a06000 	mov	r6, r0
4200054c:	e1a05001 	mov	r5, r1
42000550:	e3a04000 	mov	r4, #0
42000554:	eb00010f 	bl	42000998 <vPortEnterCritical>
42000558:	e1a02005 	mov	r2, r5
4200055c:	e1a01006 	mov	r1, r6
42000560:	e28f0e13 	add	r0, pc, #304	; 0x130
42000564:	fa001046 	blx	42004684 <__2printf>
42000568:	ea000000 	b	42000570 <vAssertCalled+0x2c>
4200056c:	e320f000 	nop	{0}
42000570:	e3540000 	cmp	r4, #0
42000574:	0afffffc 	beq	4200056c <vAssertCalled+0x28>
42000578:	e8bd4070 	pop	{r4, r5, r6, lr}
4200057c:	ea000115 	b	420009d8 <vPortExitCritical>

42000580 <vApplicationIRQHandler>:
42000580:	e92d4010 	push	{r4, lr}
42000584:	e3500032 	cmp	r0, #50	; 0x32
42000588:	0a000003 	beq	4200059c <vApplicationIRQHandler+0x1c>
4200058c:	e1a01000 	mov	r1, r0
42000590:	e8bd4010 	pop	{r4, lr}
42000594:	e28f0f46 	add	r0, pc, #280	; 0x118
42000598:	ea001037 	b	4200467c <HypervisorInterruptHandler+0xd4>
4200059c:	e59f0134 	ldr	r0, [pc, #308]	; 420006d8 <vApplicationGetIdleTaskMemory+0x108>
420005a0:	e3a01001 	mov	r1, #1
420005a4:	eb000faa 	bl	42004454 <writel>
420005a8:	e8bd4010 	pop	{r4, lr}
420005ac:	ea000119 	b	42000a18 <FreeRTOS_Tick_Handler>

420005b0 <vClearTickInterrupt>:
420005b0:	e12fff1e 	bx	lr

420005b4 <vConfigureTickInterrupt>:
420005b4:	e92d4010 	push	{r4, lr}
420005b8:	e28f0f47 	add	r0, pc, #284	; 0x11c
420005bc:	fa001030 	blx	42004684 <__2printf>
420005c0:	e8bd4010 	pop	{r4, lr}
420005c4:	ea000fe3 	b	42004558 <TimerInitialize>

420005c8 <GetRunTimeCounterValue>:
420005c8:	e3a00001 	mov	r0, #1
420005cc:	ea000fdc 	b	42004544 <read_timer>

420005d0 <vApplicationGetIdleTaskMemory>:
420005d0:	e92d4070 	push	{r4, r5, r6, lr}
420005d4:	e1a04000 	mov	r4, r0
420005d8:	e1a05001 	mov	r5, r1
420005dc:	e1a06002 	mov	r6, r2
420005e0:	e28f0f45 	add	r0, pc, #276	; 0x114
420005e4:	fa001026 	blx	42004684 <__2printf>
420005e8:	e59f0134 	ldr	r0, [pc, #308]	; 42000724 <vApplicationGetIdleTaskMemory+0x154>
420005ec:	e5840000 	str	r0, [r4]
420005f0:	e280005c 	add	r0, r0, #92	; 0x5c
420005f4:	e5850000 	str	r0, [r5]
420005f8:	e3a000fa 	mov	r0, #250	; 0xfa
420005fc:	e5860000 	str	r0, [r6]
42000600:	e8bd8070 	pop	{r4, r5, r6, pc}
42000604:	51767270 	cmnpl	r6, r0, ror r2
42000608:	65756575 	ldrbvs	r6, [r5, #-1397]!	; 0x575
4200060c:	65636552 	strbvs	r6, [r3, #-1362]!	; 0x552
42000610:	54657669 	strbtpl	r7, [r5], #-1641	; 0x669
42000614:	206b7361 	rsbcs	r7, fp, r1, ror #6
42000618:	656e6f44 	strbvs	r6, [lr, #-3908]!	; 0xf44
4200061c:	000a0d20 	andeq	r0, sl, r0, lsr #26
42000620:	420059f0 	andmi	r5, r0, #240, 18	; 0x3c0000
42000624:	65755178 	ldrbvs	r5, [r5, #-376]!	; 0x178
42000628:	65526575 	ldrbvs	r6, [r2, #-1397]	; 0x575
4200062c:	76696563 	strbtvc	r6, [r9], -r3, ror #10
42000630:	64252065 	strtvs	r2, [r5], #-101	; 0x65
42000634:	6e6f4420 	cdpvs	4, 6, cr4, cr15, cr0, {1}
42000638:	0a0d2065 	beq	423487d4 <__temporary_stack_top$libspace+0x32b644>
4200063c:	00000000 	andeq	r0, r0, r0
42000640:	51767270 	cmnpl	r6, r0, ror r2
42000644:	65756575 	ldrbvs	r6, [r5, #-1397]!	; 0x575
42000648:	646e6553 	strbtvs	r6, [lr], #-1363	; 0x553
4200064c:	6b736154 	blvs	43cd8ba4 <Image$$ARM_LIB_HEAP$$ZI$$Limit+0xc58ba4>
42000650:	6e6f4420 	cdpvs	4, 6, cr4, cr15, cr0, {1}
42000654:	0a0d2065 	beq	423487f0 <__temporary_stack_top$libspace+0x32b660>
42000658:	00000000 	andeq	r0, r0, r0
4200065c:	65755178 	ldrbvs	r5, [r5, #-376]!	; 0x178
42000660:	65536575 	ldrbvs	r6, [r3, #-1397]	; 0x575
42000664:	2020646e 	eorcs	r6, r0, lr, ror #8
42000668:	44206425 	strtmi	r6, [r0], #-1061	; 0x425
4200066c:	0d656e6f 	stcleq	14, cr6, [r5, #-444]!	; 0xfffffe44
42000670:	0000000a 	andeq	r0, r0, sl
42000674:	74696e49 	strbtvc	r6, [r9], #-3657	; 0xe49
42000678:	65724620 	ldrbvs	r4, [r2, #-1568]!	; 0x620
4200067c:	4f545265 	svcmi	0x00545265
42000680:	0a0d2053 	beq	423487d4 <__temporary_stack_top$libspace+0x32b644>
42000684:	00000000 	andeq	r0, r0, r0
42000688:	00007852 	andeq	r7, r0, r2, asr r8
4200068c:	42000444 	andmi	r0, r0, #68, 8	; 0x44000000
42000690:	00005854 	andeq	r5, r0, r4, asr r8
42000694:	42000474 	andmi	r0, r0, #116, 8	; 0x74000000
42000698:	73734176 	cmnvc	r3, #-2147483619	; 0x8000001d
4200069c:	43747265 	cmnmi	r4, #1342177286	; 0x50000006
420006a0:	656c6c61 	strbvs	r6, [ip, #-3169]!	; 0xc61
420006a4:	50412064 	subpl	r2, r1, r4, rrx
420006a8:	73252049 	teqvc	r5, #73	; 0x49
420006ac:	6425202c 	strtvs	r2, [r5], #-44	; 0x2c
420006b0:	000a0d20 	andeq	r0, sl, r0, lsr #26
420006b4:	6e6b6e55 	mcrvs	14, 3, r6, cr11, cr5, {2}
420006b8:	206e776f 	rsbcs	r7, lr, pc, ror #14
420006bc:	49515249 	ldmdbmi	r1, {r0, r3, r6, r9, ip, lr}^
420006c0:	7265746e 	rsbvc	r7, r5, #1845493760	; 0x6e000000
420006c4:	74707572 	ldrbtvc	r7, [r0], #-1394	; 0x572
420006c8:	646e6148 	strbtvs	r6, [lr], #-328	; 0x148
420006cc:	2072656c 	rsbscs	r6, r2, ip, ror #10
420006d0:	0a206425 	beq	4281976c <__temporary_stack_top$libspace+0x7fc5dc>
420006d4:	0000000d 	andeq	r0, r0, sp
420006d8:	01c20c04 	biceq	r0, r2, r4, lsl #24
420006dc:	6e6f4376 	mcrvs	3, 3, r4, cr15, cr6, {3}
420006e0:	75676966 	strbvc	r6, [r7, #-2406]!	; 0x966
420006e4:	69546572 	ldmdbvs	r4, {r1, r4, r5, r6, r8, sl, sp, lr}^
420006e8:	6e496b63 	vmlsvs.f64	d22, d9, d19
420006ec:	72726574 	rsbsvc	r6, r2, #116, 10	; 0x1d000000
420006f0:	20747075 	rsbscs	r7, r4, r5, ror r0
420006f4:	20495041 	subcs	r5, r9, r1, asr #32
420006f8:	00000a0d 	andeq	r0, r0, sp, lsl #20
420006fc:	70704176 	rsbsvc	r4, r0, r6, ror r1
42000700:	6163696c 	cmnvs	r3, ip, ror #18
42000704:	6e6f6974 	mcrvs	9, 3, r6, cr15, cr4, {3}
42000708:	49746547 	ldmdbmi	r4!, {r0, r1, r2, r6, r8, sl, sp, lr}^
4200070c:	54656c64 	strbtpl	r6, [r5], #-3172	; 0xc64
42000710:	4d6b7361 	stclmi	3, cr7, [fp, #-388]!	; 0xfffffe7c
42000714:	726f6d65 	rsbvc	r6, pc, #6464	; 0x1940
42000718:	50412079 	subpl	r2, r1, r9, ror r0
4200071c:	0a0d2049 	beq	42348848 <__temporary_stack_top$libspace+0x32b6b8>
42000720:	00000000 	andeq	r0, r0, r0
42000724:	4201c268 	andmi	ip, r1, #104, 4	; 0x80000006

42000728 <vApplicationIdleHook>:
42000728:	e12fff1e 	bx	lr

4200072c <vApplicationStackOverflowHook>:
4200072c:	e28f0058 	add	r0, pc, #88	; 0x58
42000730:	fa000fd3 	blx	42004684 <__2printf>
42000734:	eb00003c 	bl	4200082c <ulPortSetInterruptMask>
42000738:	eafffffe 	b	42000738 <vApplicationStackOverflowHook+0xc>

4200073c <vApplicationTickHook>:
4200073c:	e12fff1e 	bx	lr

42000740 <vInitialiseTimerForRunTimeStats>:
42000740:	e28f006c 	add	r0, pc, #108	; 0x6c
42000744:	ea000fcc 	b	4200467c <HypervisorInterruptHandler+0xd4>

42000748 <vApplicationGetTimerTaskMemory>:
42000748:	e92d4070 	push	{r4, r5, r6, lr}
4200074c:	e1a04000 	mov	r4, r0
42000750:	e1a05001 	mov	r5, r1
42000754:	e1a06002 	mov	r6, r2
42000758:	e28f007c 	add	r0, pc, #124	; 0x7c
4200075c:	fa000fc8 	blx	42004684 <__2printf>
42000760:	e59f009c 	ldr	r0, [pc, #156]	; 42000804 <vApplicationMallocFailedHook+0x88>
42000764:	e5840000 	str	r0, [r4]
42000768:	e280005c 	add	r0, r0, #92	; 0x5c
4200076c:	e5850000 	str	r0, [r5]
42000770:	e3a00f7d 	mov	r0, #500	; 0x1f4
42000774:	e5860000 	str	r0, [r6]
42000778:	e8bd8070 	pop	{r4, r5, r6, pc}

4200077c <vApplicationMallocFailedHook>:
4200077c:	e28f0084 	add	r0, pc, #132	; 0x84
42000780:	fa000fbf 	blx	42004684 <__2printf>
42000784:	eb000028 	bl	4200082c <ulPortSetInterruptMask>
42000788:	eafffffe 	b	42000788 <vApplicationMallocFailedHook+0xc>
4200078c:	70704176 	rsbsvc	r4, r0, r6, ror r1
42000790:	6163696c 	cmnvs	r3, ip, ror #18
42000794:	6e6f6974 	mcrvs	9, 3, r6, cr15, cr4, {3}
42000798:	63617453 	cmnvs	r1, #1392508928	; 0x53000000
4200079c:	65764f6b 	ldrbvs	r4, [r6, #-3947]!	; 0xf6b
420007a0:	6f6c6672 	svcvs	0x006c6672
420007a4:	6f6f4877 	svcvs	0x006f4877
420007a8:	5041206b 	subpl	r2, r1, fp, rrx
420007ac:	0a0d2049 	beq	423488d8 <__temporary_stack_top$libspace+0x32b748>
420007b0:	00000000 	andeq	r0, r0, r0
420007b4:	696e4976 	stmdbvs	lr!, {r1, r2, r4, r5, r6, r8, fp, lr}^
420007b8:	6c616974 	stclvs	9, cr6, [r1], #-464	; 0xfffffe30
420007bc:	54657369 	strbtpl	r7, [r5], #-873	; 0x369
420007c0:	72656d69 	rsbvc	r6, r5, #6720	; 0x1a40
420007c4:	52726f46 	rsbspl	r6, r2, #280	; 0x118
420007c8:	69546e75 	ldmdbvs	r4, {r0, r2, r4, r5, r6, r9, sl, fp, sp, lr}^
420007cc:	7453656d 	ldrbvc	r6, [r3], #-1389	; 0x56d
420007d0:	20737461 	rsbscs	r7, r3, r1, ror #8
420007d4:	20495041 	subcs	r5, r9, r1, asr #32
420007d8:	00000a0d 	andeq	r0, r0, sp, lsl #20
420007dc:	70704176 	rsbsvc	r4, r0, r6, ror r1
420007e0:	6163696c 	cmnvs	r3, ip, ror #18
420007e4:	6e6f6974 	mcrvs	9, 3, r6, cr15, cr4, {3}
420007e8:	54746547 	ldrbtpl	r6, [r4], #-1351	; 0x547
420007ec:	72656d69 	rsbvc	r6, r5, #6720	; 0x1a40
420007f0:	6b736154 	blvs	43cd8d48 <Image$$ARM_LIB_HEAP$$ZI$$Limit+0xc58d48>
420007f4:	6f6d654d 	svcvs	0x006d654d
420007f8:	41207972 	teqmi	r0, r2, ror r9
420007fc:	0d204950 	stceq	9, cr4, [r0, #-320]!	; 0xfffffec0
42000800:	0000000a 	andeq	r0, r0, sl
42000804:	4201c6ac 	andmi	ip, r1, #172, 12	; 0xac00000
42000808:	70704176 	rsbsvc	r4, r0, r6, ror r1
4200080c:	6163696c 	cmnvs	r3, ip, ror #18
42000810:	6e6f6974 	mcrvs	9, 3, r6, cr15, cr4, {3}
42000814:	6c6c614d 	stfvse	f6, [ip], #-308	; 0xfffffecc
42000818:	6146636f 	cmpvs	r6, pc, ror #6
4200081c:	64656c69 	strbtvs	r6, [r5], #-3177	; 0xc69
42000820:	6b6f6f48 	blvs	43bdc548 <Image$$ARM_LIB_HEAP$$ZI$$Limit+0xb5c548>
42000824:	49504120 	ldmdbmi	r0, {r5, r8, lr}^
42000828:	000a0d20 	andeq	r0, sl, r0, lsr #26

4200082c <ulPortSetInterruptMask>:
4200082c:	f10c0080 	cpsid	i
42000830:	e59f1224 	ldr	r1, [pc, #548]	; 42000a5c <FreeRTOS_Tick_Handler+0x44>
42000834:	e5910004 	ldr	r0, [r1, #4]
42000838:	e3500090 	cmp	r0, #144	; 0x90
4200083c:	13a02090 	movne	r2, #144	; 0x90
42000840:	03a00001 	moveq	r0, #1
42000844:	13a00000 	movne	r0, #0
42000848:	15812004 	strne	r2, [r1, #4]
4200084c:	f1080080 	cpsie	i
42000850:	e12fff1e 	bx	lr

42000854 <prvTaskExitError>:
42000854:	e59f0204 	ldr	r0, [pc, #516]	; 42000a60 <FreeRTOS_Tick_Handler+0x48>
42000858:	e590000c 	ldr	r0, [r0, #12]
4200085c:	e3700001 	cmn	r0, #1
42000860:	13001121 	movwne	r1, #289	; 0x121
42000864:	128f0f7e 	addne	r0, pc, #504	; 0x1f8
42000868:	1bffff35 	blne	42000544 <vAssertCalled>
4200086c:	ebffffee 	bl	4200082c <ulPortSetInterruptMask>
42000870:	eafffffe 	b	42000870 <prvTaskExitError+0x1c>

42000874 <pxPortInitialiseStack>:
42000874:	e92d4010 	push	{r4, lr}
42000878:	e3a03000 	mov	r3, #0
4200087c:	e5803000 	str	r3, [r0]
42000880:	e3a0401f 	mov	r4, #31
42000884:	e5003004 	str	r3, [r0, #-4]
42000888:	e3110001 	tst	r1, #1
4200088c:	e5203008 	str	r3, [r0, #-8]!
42000890:	e5204004 	str	r4, [r0, #-4]!
42000894:	13a0403f 	movne	r4, #63	; 0x3f
42000898:	15804000 	strne	r4, [r0]
4200089c:	e5001004 	str	r1, [r0, #-4]
420008a0:	e59f11dc 	ldr	r1, [pc, #476]	; 42000a84 <FreeRTOS_Tick_Handler+0x6c>
420008a4:	e5001008 	str	r1, [r0, #-8]
420008a8:	e59f11d8 	ldr	r1, [pc, #472]	; 42000a88 <FreeRTOS_Tick_Handler+0x70>
420008ac:	e500100c 	str	r1, [r0, #-12]
420008b0:	e59f11d4 	ldr	r1, [pc, #468]	; 42000a8c <FreeRTOS_Tick_Handler+0x74>
420008b4:	e5001010 	str	r1, [r0, #-16]
420008b8:	e59f11d0 	ldr	r1, [pc, #464]	; 42000a90 <FreeRTOS_Tick_Handler+0x78>
420008bc:	e5001014 	str	r1, [r0, #-20]
420008c0:	e59f11cc 	ldr	r1, [pc, #460]	; 42000a94 <FreeRTOS_Tick_Handler+0x7c>
420008c4:	e5001018 	str	r1, [r0, #-24]
420008c8:	e1c111c1 	bic	r1, r1, r1, asr #3
420008cc:	e500101c 	str	r1, [r0, #-28]
420008d0:	e04111c1 	sub	r1, r1, r1, asr #3
420008d4:	e5001020 	str	r1, [r0, #-32]
420008d8:	e1c11141 	bic	r1, r1, r1, asr #2
420008dc:	e5001024 	str	r1, [r0, #-36]	; 0x24
420008e0:	e02110c1 	eor	r1, r1, r1, asr #1
420008e4:	e5001028 	str	r1, [r0, #-40]	; 0x28
420008e8:	e1c11141 	bic	r1, r1, r1, asr #2
420008ec:	e500102c 	str	r1, [r0, #-44]	; 0x2c
420008f0:	e0411141 	sub	r1, r1, r1, asr #2
420008f4:	e5001030 	str	r1, [r0, #-48]	; 0x30
420008f8:	e1c110c1 	bic	r1, r1, r1, asr #1
420008fc:	e5001034 	str	r1, [r0, #-52]	; 0x34
42000900:	e1a010c1 	asr	r1, r1, #1
42000904:	e5001038 	str	r1, [r0, #-56]	; 0x38
42000908:	e500203c 	str	r2, [r0, #-60]	; 0x3c
4200090c:	e5003040 	str	r3, [r0, #-64]	; 0x40
42000910:	e5203044 	str	r3, [r0, #-68]!	; 0x44
42000914:	e8bd8010 	pop	{r4, pc}

42000918 <xPortStartScheduler>:
42000918:	e92d4010 	push	{r4, lr}
4200091c:	e10f0000 	mrs	r0, CPSR
42000920:	e200001f 	and	r0, r0, #31
42000924:	e3500010 	cmp	r0, #16
42000928:	0a00000f 	beq	4200096c <xPortStartScheduler+0x54>
4200092c:	e59f4128 	ldr	r4, [pc, #296]	; 42000a5c <FreeRTOS_Tick_Handler+0x44>
42000930:	e5940008 	ldr	r0, [r4, #8]
42000934:	e2000003 	and	r0, r0, #3
42000938:	e3500002 	cmp	r0, #2
4200093c:	83001136 	movwhi	r1, #310	; 0x136
42000940:	828f0f47 	addhi	r0, pc, #284	; 0x11c
42000944:	8bfffefe 	blhi	42000544 <vAssertCalled>
42000948:	e5940008 	ldr	r0, [r4, #8]
4200094c:	e2000003 	and	r0, r0, #3
42000950:	e3500002 	cmp	r0, #2
42000954:	8a000002 	bhi	42000964 <xPortStartScheduler+0x4c>
42000958:	ebffff15 	bl	420005b4 <vConfigureTickInterrupt>
4200095c:	f1080080 	cpsie	i
42000960:	eb00138e 	bl	420057a0 <vPortRestoreTaskContext>
42000964:	e3a00000 	mov	r0, #0
42000968:	e8bd8010 	pop	{r4, pc}
4200096c:	e300112f 	movw	r1, #303	; 0x12f
42000970:	e28f00ec 	add	r0, pc, #236	; 0xec
42000974:	ebfffef2 	bl	42000544 <vAssertCalled>
42000978:	eafffff9 	b	42000964 <xPortStartScheduler+0x4c>

4200097c <vPortEndScheduler>:
4200097c:	e59f00dc 	ldr	r0, [pc, #220]	; 42000a60 <FreeRTOS_Tick_Handler+0x48>
42000980:	e5900000 	ldr	r0, [r0]
42000984:	e3500ffa 	cmp	r0, #1000	; 0x3e8
42000988:	012fff1e 	bxeq	lr
4200098c:	e300114d 	movw	r1, #333	; 0x14d
42000990:	e28f00cc 	add	r0, pc, #204	; 0xcc
42000994:	eafffeea 	b	42000544 <vAssertCalled>

42000998 <vPortEnterCritical>:
42000998:	e92d4010 	push	{r4, lr}
4200099c:	ebffffa2 	bl	4200082c <ulPortSetInterruptMask>
420009a0:	e59f00b8 	ldr	r0, [pc, #184]	; 42000a60 <FreeRTOS_Tick_Handler+0x48>
420009a4:	e5901000 	ldr	r1, [r0]
420009a8:	e2811001 	add	r1, r1, #1
420009ac:	e5801000 	str	r1, [r0]
420009b0:	e5901000 	ldr	r1, [r0]
420009b4:	e3510001 	cmp	r1, #1
420009b8:	18bd8010 	popne	{r4, pc}
420009bc:	e590000c 	ldr	r0, [r0, #12]
420009c0:	e3500000 	cmp	r0, #0
420009c4:	08bd8010 	popeq	{r4, pc}
420009c8:	e3001162 	movw	r1, #354	; 0x162
420009cc:	e8bd4010 	pop	{r4, lr}
420009d0:	e28f008c 	add	r0, pc, #140	; 0x8c
420009d4:	eafffeda 	b	42000544 <vAssertCalled>

420009d8 <vPortExitCritical>:
420009d8:	e59f0080 	ldr	r0, [pc, #128]	; 42000a60 <FreeRTOS_Tick_Handler+0x48>
420009dc:	e5901000 	ldr	r1, [r0]
420009e0:	e3510000 	cmp	r1, #0
420009e4:	012fff1e 	bxeq	lr
420009e8:	e5901000 	ldr	r1, [r0]
420009ec:	e2411001 	sub	r1, r1, #1
420009f0:	e5801000 	str	r1, [r0]
420009f4:	e5900000 	ldr	r0, [r0]
420009f8:	e3500000 	cmp	r0, #0
420009fc:	112fff1e 	bxne	lr
42000a00:	f10c0080 	cpsid	i
42000a04:	e59f1050 	ldr	r1, [pc, #80]	; 42000a5c <FreeRTOS_Tick_Handler+0x44>
42000a08:	e3a000ff 	mov	r0, #255	; 0xff
42000a0c:	e5810004 	str	r0, [r1, #4]
42000a10:	f1080080 	cpsie	i
42000a14:	e12fff1e 	bx	lr

42000a18 <FreeRTOS_Tick_Handler>:
42000a18:	e92d4010 	push	{r4, lr}
42000a1c:	f10c0080 	cpsid	i
42000a20:	e59f4034 	ldr	r4, [pc, #52]	; 42000a5c <FreeRTOS_Tick_Handler+0x44>
42000a24:	e3a00090 	mov	r0, #144	; 0x90
42000a28:	e5840004 	str	r0, [r4, #4]
42000a2c:	f1080080 	cpsie	i
42000a30:	eb000536 	bl	42001f10 <xTaskIncrementTick>
42000a34:	e3500000 	cmp	r0, #0
42000a38:	159f1020 	ldrne	r1, [pc, #32]	; 42000a60 <FreeRTOS_Tick_Handler+0x48>
42000a3c:	13a00001 	movne	r0, #1
42000a40:	15810008 	strne	r0, [r1, #8]
42000a44:	f10c0080 	cpsid	i
42000a48:	e3a000ff 	mov	r0, #255	; 0xff
42000a4c:	e5840004 	str	r0, [r4, #4]
42000a50:	f1080080 	cpsie	i
42000a54:	e8bd4010 	pop	{r4, lr}
42000a58:	eafffed4 	b	420005b0 <vClearTickInterrupt>
42000a5c:	01c82000 	biceq	r2, r8, r0
42000a60:	420059f4 	andmi	r5, r0, #244, 18	; 0x3d0000
42000a64:	6f702f2e 	svcvs	0x00702f2e
42000a68:	62617472 	rsbvs	r7, r1, #1912602624	; 0x72000000
42000a6c:	522f656c 	eorpl	r6, pc, #108, 10	; 0x1b000000
42000a70:	2f534456 	svccs	0x00534456
42000a74:	5f4d5241 	svcpl	0x004d5241
42000a78:	2f394143 	svccs	0x00394143
42000a7c:	74726f70 	ldrbtvc	r6, [r2], #-3952	; 0xf70
42000a80:	0000632e 	andeq	r6, r0, lr, lsr #6
42000a84:	42000854 	andmi	r0, r0, #84, 16	; 0x540000
42000a88:	12121212 	andsne	r1, r2, #536870913	; 0x20000001
42000a8c:	11111111 	tstne	r1, r1, lsl r1
42000a90:	10101010 	andsne	r1, r0, r0, lsl r0
42000a94:	09090909 	stmdbeq	r9, {r0, r3, r8, fp}

42000a98 <vPortTaskUsesFPU>:
42000a98:	e51f2040 	ldr	r2, [pc, #-64]	; 42000a60 <FreeRTOS_Tick_Handler+0x48>
42000a9c:	e3a00000 	mov	r0, #0
42000aa0:	eee10a10 	vmsr	fpscr, r0
42000aa4:	e3a01001 	mov	r1, #1
42000aa8:	e5821004 	str	r1, [r2, #4]
42000aac:	e12fff1e 	bx	lr

42000ab0 <vPortClearInterruptMask>:
42000ab0:	e3500000 	cmp	r0, #0
42000ab4:	112fff1e 	bxne	lr
42000ab8:	f10c0080 	cpsid	i
42000abc:	e51f1068 	ldr	r1, [pc, #-104]	; 42000a5c <FreeRTOS_Tick_Handler+0x44>
42000ac0:	e3a000ff 	mov	r0, #255	; 0xff
42000ac4:	e5810004 	str	r0, [r1, #4]
42000ac8:	f1080080 	cpsie	i
42000acc:	e12fff1e 	bx	lr

42000ad0 <vPortValidateInterruptPriority>:
42000ad0:	e92d4010 	push	{r4, lr}
42000ad4:	e51f4080 	ldr	r4, [pc, #-128]	; 42000a5c <FreeRTOS_Tick_Handler+0x44>
42000ad8:	e5940014 	ldr	r0, [r4, #20]
42000adc:	e3500090 	cmp	r0, #144	; 0x90
42000ae0:	330011d9 	movwcc	r1, #473	; 0x1d9
42000ae4:	324f0088 	subcc	r0, pc, #136	; 0x88
42000ae8:	3bfffe95 	blcc	42000544 <vAssertCalled>
42000aec:	e5940008 	ldr	r0, [r4, #8]
42000af0:	e3500002 	cmp	r0, #2
42000af4:	98bd8010 	popls	{r4, pc}
42000af8:	e30011e5 	movw	r1, #485	; 0x1e5
42000afc:	e8bd4010 	pop	{r4, lr}
42000b00:	e24f00a4 	sub	r0, pc, #164	; 0xa4
42000b04:	eafffe8e 	b	42000544 <vAssertCalled>

42000b08 <xQueueGenericReset>:
42000b08:	e92d4070 	push	{r4, r5, r6, lr}
42000b0c:	e1b04000 	movs	r4, r0
42000b10:	e1a05001 	mov	r5, r1
42000b14:	03a010fb 	moveq	r1, #251	; 0xfb
42000b18:	028f0f96 	addeq	r0, pc, #600	; 0x258
42000b1c:	0bfffe88 	bleq	42000544 <vAssertCalled>
42000b20:	ebffff9c 	bl	42000998 <vPortEnterCritical>
42000b24:	e284103c 	add	r1, r4, #60	; 0x3c
42000b28:	e5940000 	ldr	r0, [r4]
42000b2c:	e8910006 	ldm	r1, {r1, r2}
42000b30:	e0200291 	mla	r0, r1, r2, r0
42000b34:	e5840004 	str	r0, [r4, #4]
42000b38:	e3a00000 	mov	r0, #0
42000b3c:	e5840038 	str	r0, [r4, #56]	; 0x38
42000b40:	e2411001 	sub	r1, r1, #1
42000b44:	e5940000 	ldr	r0, [r4]
42000b48:	e5840008 	str	r0, [r4, #8]
42000b4c:	e0200291 	mla	r0, r1, r2, r0
42000b50:	e584000c 	str	r0, [r4, #12]
42000b54:	e3e00000 	mvn	r0, #0
42000b58:	e5c40044 	strb	r0, [r4, #68]	; 0x44
42000b5c:	e5c40045 	strb	r0, [r4, #69]	; 0x45
42000b60:	e3550000 	cmp	r5, #0
42000b64:	0a000006 	beq	42000b84 <xQueueGenericReset+0x7c>
42000b68:	e2840010 	add	r0, r4, #16
42000b6c:	ebfffdf6 	bl	4200034c <vListInitialise>
42000b70:	e2840024 	add	r0, r4, #36	; 0x24
42000b74:	ebfffdf4 	bl	4200034c <vListInitialise>
42000b78:	ebffff96 	bl	420009d8 <vPortExitCritical>
42000b7c:	e3a00001 	mov	r0, #1
42000b80:	e8bd8070 	pop	{r4, r5, r6, pc}
42000b84:	e5940010 	ldr	r0, [r4, #16]
42000b88:	e3500000 	cmp	r0, #0
42000b8c:	0afffff9 	beq	42000b78 <xQueueGenericReset+0x70>
42000b90:	e2840010 	add	r0, r4, #16
42000b94:	eb0008b8 	bl	42002e7c <xTaskRemoveFromEventList>
42000b98:	e3500000 	cmp	r0, #0
42000b9c:	1f000000 	svcne	0x00000000
42000ba0:	eafffff4 	b	42000b78 <xQueueGenericReset+0x70>

42000ba4 <xQueueGenericCreate>:
42000ba4:	e92d41f0 	push	{r4, r5, r6, r7, r8, lr}
42000ba8:	e1b06000 	movs	r6, r0
42000bac:	e1a05001 	mov	r5, r1
42000bb0:	e1a07002 	mov	r7, r2
42000bb4:	03a01f5b 	moveq	r1, #364	; 0x16c
42000bb8:	028f0f6e 	addeq	r0, pc, #440	; 0x1b8
42000bbc:	0bfffe60 	bleq	42000544 <vAssertCalled>
42000bc0:	e3550000 	cmp	r5, #0
42000bc4:	10000596 	mulne	r0, r6, r5
42000bc8:	03a00000 	moveq	r0, #0
42000bcc:	e2800054 	add	r0, r0, #84	; 0x54
42000bd0:	ebfffd79 	bl	420001bc <_maybe_terminate_alloc>
42000bd4:	e1b04000 	movs	r4, r0
42000bd8:	08bd81f0 	popeq	{r4, r5, r6, r7, r8, pc}
42000bdc:	e3a01001 	mov	r1, #1
42000be0:	e3550000 	cmp	r5, #0
42000be4:	e2840054 	add	r0, r4, #84	; 0x54
42000be8:	05844000 	streq	r4, [r4]
42000bec:	15840000 	strne	r0, [r4]
42000bf0:	e1a00004 	mov	r0, r4
42000bf4:	e5845040 	str	r5, [r4, #64]	; 0x40
42000bf8:	e584603c 	str	r6, [r4, #60]	; 0x3c
42000bfc:	ebffffc1 	bl	42000b08 <xQueueGenericReset>
42000c00:	e5c47050 	strb	r7, [r4, #80]	; 0x50
42000c04:	e3a01000 	mov	r1, #0
42000c08:	e1a00004 	mov	r0, r4
42000c0c:	e5841048 	str	r1, [r4, #72]	; 0x48
42000c10:	e8bd81f0 	pop	{r4, r5, r6, r7, r8, pc}

42000c14 <prvCopyDataToQueue>:
42000c14:	e92d41f0 	push	{r4, r5, r6, r7, r8, lr}
42000c18:	e1a04000 	mov	r4, r0
42000c1c:	e5905038 	ldr	r5, [r0, #56]	; 0x38
42000c20:	e1a06002 	mov	r6, r2
42000c24:	e3a07000 	mov	r7, #0
42000c28:	e5902040 	ldr	r2, [r0, #64]	; 0x40
42000c2c:	e3520000 	cmp	r2, #0
42000c30:	0a00000f 	beq	42000c74 <prvCopyDataToQueue+0x60>
42000c34:	e3560000 	cmp	r6, #0
42000c38:	0a000016 	beq	42000c98 <prvCopyDataToQueue+0x84>
42000c3c:	e594000c 	ldr	r0, [r4, #12]
42000c40:	eb000f83 	bl	42004a54 <__aeabi_memcpy>
42000c44:	e5940040 	ldr	r0, [r4, #64]	; 0x40
42000c48:	e594100c 	ldr	r1, [r4, #12]
42000c4c:	e0411000 	sub	r1, r1, r0
42000c50:	e584100c 	str	r1, [r4, #12]
42000c54:	e5942000 	ldr	r2, [r4]
42000c58:	e1520001 	cmp	r2, r1
42000c5c:	85941004 	ldrhi	r1, [r4, #4]
42000c60:	80410000 	subhi	r0, r1, r0
42000c64:	8584000c 	strhi	r0, [r4, #12]
42000c68:	e3560002 	cmp	r6, #2
42000c6c:	1a000016 	bne	42000ccc <prvCopyDataToQueue+0xb8>
42000c70:	ea000013 	b	42000cc4 <prvCopyDataToQueue+0xb0>
42000c74:	e5940000 	ldr	r0, [r4]
42000c78:	e3500000 	cmp	r0, #0
42000c7c:	1a000012 	bne	42000ccc <prvCopyDataToQueue+0xb8>
42000c80:	e5940004 	ldr	r0, [r4, #4]
42000c84:	eb000955 	bl	420031e0 <xTaskPriorityDisinherit>
42000c88:	e1a07000 	mov	r7, r0
42000c8c:	e3a00000 	mov	r0, #0
42000c90:	e5840004 	str	r0, [r4, #4]
42000c94:	ea00000c 	b	42000ccc <prvCopyDataToQueue+0xb8>
42000c98:	e5940008 	ldr	r0, [r4, #8]
42000c9c:	eb000f6c 	bl	42004a54 <__aeabi_memcpy>
42000ca0:	e5940008 	ldr	r0, [r4, #8]
42000ca4:	e5941040 	ldr	r1, [r4, #64]	; 0x40
42000ca8:	e0800001 	add	r0, r0, r1
42000cac:	e5840008 	str	r0, [r4, #8]
42000cb0:	e5941004 	ldr	r1, [r4, #4]
42000cb4:	e1500001 	cmp	r0, r1
42000cb8:	25940000 	ldrcs	r0, [r4]
42000cbc:	25840008 	strcs	r0, [r4, #8]
42000cc0:	ea000001 	b	42000ccc <prvCopyDataToQueue+0xb8>
42000cc4:	e3550000 	cmp	r5, #0
42000cc8:	12455001 	subne	r5, r5, #1
42000ccc:	e2850001 	add	r0, r5, #1
42000cd0:	e5840038 	str	r0, [r4, #56]	; 0x38
42000cd4:	e1a00007 	mov	r0, r7
42000cd8:	e8bd81f0 	pop	{r4, r5, r6, r7, r8, pc}

42000cdc <prvNotifyQueueSetContainer>:
42000cdc:	e92d41f3 	push	{r0, r1, r4, r5, r6, r7, r8, lr}
42000ce0:	e1a07001 	mov	r7, r1
42000ce4:	e3a06000 	mov	r6, #0
42000ce8:	e59d0000 	ldr	r0, [sp]
42000cec:	e5904048 	ldr	r4, [r0, #72]	; 0x48
42000cf0:	e3540000 	cmp	r4, #0
42000cf4:	03001b25 	movweq	r1, #2853	; 0xb25
42000cf8:	028f0078 	addeq	r0, pc, #120	; 0x78
42000cfc:	0bfffe10 	bleq	42000544 <vAssertCalled>
42000d00:	e5940038 	ldr	r0, [r4, #56]	; 0x38
42000d04:	e594103c 	ldr	r1, [r4, #60]	; 0x3c
42000d08:	e1500001 	cmp	r0, r1
42000d0c:	23001b26 	movwcs	r1, #2854	; 0xb26
42000d10:	228f0060 	addcs	r0, pc, #96	; 0x60
42000d14:	2bfffe0a 	blcs	42000544 <vAssertCalled>
42000d18:	e5940038 	ldr	r0, [r4, #56]	; 0x38
42000d1c:	e594103c 	ldr	r1, [r4, #60]	; 0x3c
42000d20:	e1500001 	cmp	r0, r1
42000d24:	2a000009 	bcs	42000d50 <prvNotifyQueueSetContainer+0x74>
42000d28:	e1d454d5 	ldrsb	r5, [r4, #69]	; 0x45
42000d2c:	e1a02007 	mov	r2, r7
42000d30:	e1a0100d 	mov	r1, sp
42000d34:	e1a00004 	mov	r0, r4
42000d38:	ebffffb5 	bl	42000c14 <prvCopyDataToQueue>
42000d3c:	e3750001 	cmn	r5, #1
42000d40:	e1a06000 	mov	r6, r0
42000d44:	12850001 	addne	r0, r5, #1
42000d48:	15c40045 	strbne	r0, [r4, #69]	; 0x45
42000d4c:	0a000001 	beq	42000d58 <prvNotifyQueueSetContainer+0x7c>
42000d50:	e1a00006 	mov	r0, r6
42000d54:	e8bd81fc 	pop	{r2, r3, r4, r5, r6, r7, r8, pc}
42000d58:	e5940024 	ldr	r0, [r4, #36]	; 0x24
42000d5c:	e3500000 	cmp	r0, #0
42000d60:	0afffffa 	beq	42000d50 <prvNotifyQueueSetContainer+0x74>
42000d64:	e2840024 	add	r0, r4, #36	; 0x24
42000d68:	eb000843 	bl	42002e7c <xTaskRemoveFromEventList>
42000d6c:	e3500000 	cmp	r0, #0
42000d70:	13a06001 	movne	r6, #1
42000d74:	eafffff5 	b	42000d50 <prvNotifyQueueSetContainer+0x74>
42000d78:	75657571 	strbvc	r7, [r5, #-1393]!	; 0x571
42000d7c:	00632e65 	rsbeq	r2, r3, r5, ror #28

42000d80 <prvUnlockQueue>:
42000d80:	e92d4070 	push	{r4, r5, r6, lr}
42000d84:	e1a04000 	mov	r4, r0
42000d88:	ebffff02 	bl	42000998 <vPortEnterCritical>
42000d8c:	e1d454d5 	ldrsb	r5, [r4, #69]	; 0x45
42000d90:	ea00000f 	b	42000dd4 <prvUnlockQueue+0x54>
42000d94:	e5940048 	ldr	r0, [r4, #72]	; 0x48
42000d98:	e3500000 	cmp	r0, #0
42000d9c:	0a000003 	beq	42000db0 <prvUnlockQueue+0x30>
42000da0:	e3a01000 	mov	r1, #0
42000da4:	e1a00004 	mov	r0, r4
42000da8:	ebffffcb 	bl	42000cdc <prvNotifyQueueSetContainer>
42000dac:	ea000004 	b	42000dc4 <prvUnlockQueue+0x44>
42000db0:	e5940024 	ldr	r0, [r4, #36]	; 0x24
42000db4:	e3500000 	cmp	r0, #0
42000db8:	0a000007 	beq	42000ddc <prvUnlockQueue+0x5c>
42000dbc:	e2840024 	add	r0, r4, #36	; 0x24
42000dc0:	eb00082d 	bl	42002e7c <xTaskRemoveFromEventList>
42000dc4:	e3500000 	cmp	r0, #0
42000dc8:	1b0008b3 	blne	4200309c <vTaskMissedYield>
42000dcc:	e2450001 	sub	r0, r5, #1
42000dd0:	e6af5070 	sxtb	r5, r0
42000dd4:	e3550000 	cmp	r5, #0
42000dd8:	caffffed 	bgt	42000d94 <prvUnlockQueue+0x14>
42000ddc:	e3e06000 	mvn	r6, #0
42000de0:	e5c46045 	strb	r6, [r4, #69]	; 0x45
42000de4:	ebfffefb 	bl	420009d8 <vPortExitCritical>
42000de8:	ebfffeea 	bl	42000998 <vPortEnterCritical>
42000dec:	e1d454d4 	ldrsb	r5, [r4, #68]	; 0x44
42000df0:	ea000008 	b	42000e18 <prvUnlockQueue+0x98>
42000df4:	e5940010 	ldr	r0, [r4, #16]
42000df8:	e3500000 	cmp	r0, #0
42000dfc:	0a000007 	beq	42000e20 <prvUnlockQueue+0xa0>
42000e00:	e2840010 	add	r0, r4, #16
42000e04:	eb00081c 	bl	42002e7c <xTaskRemoveFromEventList>
42000e08:	e3500000 	cmp	r0, #0
42000e0c:	1b0008a2 	blne	4200309c <vTaskMissedYield>
42000e10:	e2450001 	sub	r0, r5, #1
42000e14:	e6af5070 	sxtb	r5, r0
42000e18:	e3550000 	cmp	r5, #0
42000e1c:	cafffff4 	bgt	42000df4 <prvUnlockQueue+0x74>
42000e20:	e5c46044 	strb	r6, [r4, #68]	; 0x44
42000e24:	e8bd4070 	pop	{r4, r5, r6, lr}
42000e28:	eafffeea 	b	420009d8 <vPortExitCritical>

42000e2c <xQueueGenericSend>:
42000e2c:	e92d43ff 	push	{r0, r1, r2, r3, r4, r5, r6, r7, r8, r9, lr}
42000e30:	e1b04000 	movs	r4, r0
42000e34:	e24dd00c 	sub	sp, sp, #12
42000e38:	e1a08001 	mov	r8, r1
42000e3c:	e1a07003 	mov	r7, r3
42000e40:	e3a06000 	mov	r6, #0
42000e44:	030012db 	movweq	r1, #731	; 0x2db
42000e48:	024f00d8 	subeq	r0, pc, #216	; 0xd8
42000e4c:	0bfffdbc 	bleq	42000544 <vAssertCalled>
42000e50:	e3580000 	cmp	r8, #0
42000e54:	1a000004 	bne	42000e6c <xQueueGenericSend+0x40>
42000e58:	e5940040 	ldr	r0, [r4, #64]	; 0x40
42000e5c:	e3500000 	cmp	r0, #0
42000e60:	13a01fb7 	movne	r1, #732	; 0x2dc
42000e64:	124f00f4 	subne	r0, pc, #244	; 0xf4
42000e68:	1bfffdb5 	blne	42000544 <vAssertCalled>
42000e6c:	e3570002 	cmp	r7, #2
42000e70:	1a000004 	bne	42000e88 <xQueueGenericSend+0x5c>
42000e74:	e594003c 	ldr	r0, [r4, #60]	; 0x3c
42000e78:	e3500001 	cmp	r0, #1
42000e7c:	130012dd 	movwne	r1, #733	; 0x2dd
42000e80:	124f0e11 	subne	r0, pc, #272	; 0x110
42000e84:	1bfffdae 	blne	42000544 <vAssertCalled>
42000e88:	eb000890 	bl	420030d0 <xTaskGetSchedulerState>
42000e8c:	e3500000 	cmp	r0, #0
42000e90:	1a000004 	bne	42000ea8 <xQueueGenericSend+0x7c>
42000e94:	e59d0014 	ldr	r0, [sp, #20]
42000e98:	e3500000 	cmp	r0, #0
42000e9c:	13a01e2e 	movne	r1, #736	; 0x2e0
42000ea0:	124f0e13 	subne	r0, pc, #304	; 0x130
42000ea4:	1bfffda6 	blne	42000544 <vAssertCalled>
42000ea8:	e3a09000 	mov	r9, #0
42000eac:	ebfffeb9 	bl	42000998 <vPortEnterCritical>
42000eb0:	e5940038 	ldr	r0, [r4, #56]	; 0x38
42000eb4:	e594103c 	ldr	r1, [r4, #60]	; 0x3c
42000eb8:	e1510000 	cmp	r1, r0
42000ebc:	8a000007 	bhi	42000ee0 <xQueueGenericSend+0xb4>
42000ec0:	e3570002 	cmp	r7, #2
42000ec4:	0a000005 	beq	42000ee0 <xQueueGenericSend+0xb4>
42000ec8:	e59d0014 	ldr	r0, [sp, #20]
42000ecc:	e3500000 	cmp	r0, #0
42000ed0:	0a00001d 	beq	42000f4c <xQueueGenericSend+0x120>
42000ed4:	e3560000 	cmp	r6, #0
42000ed8:	0a00001d 	beq	42000f54 <xQueueGenericSend+0x128>
42000edc:	ea00001f 	b	42000f60 <xQueueGenericSend+0x134>
42000ee0:	e1a02007 	mov	r2, r7
42000ee4:	e1a01008 	mov	r1, r8
42000ee8:	e1a00004 	mov	r0, r4
42000eec:	ebffff48 	bl	42000c14 <prvCopyDataToQueue>
42000ef0:	e5941048 	ldr	r1, [r4, #72]	; 0x48
42000ef4:	e3510000 	cmp	r1, #0
42000ef8:	0a000005 	beq	42000f14 <xQueueGenericSend+0xe8>
42000efc:	e1a01007 	mov	r1, r7
42000f00:	e1a00004 	mov	r0, r4
42000f04:	ebffff74 	bl	42000cdc <prvNotifyQueueSetContainer>
42000f08:	e3500000 	cmp	r0, #0
42000f0c:	1f000000 	svcne	0x00000000
42000f10:	ea000009 	b	42000f3c <xQueueGenericSend+0x110>
42000f14:	e5941024 	ldr	r1, [r4, #36]	; 0x24
42000f18:	e3510000 	cmp	r1, #0
42000f1c:	0a000004 	beq	42000f34 <xQueueGenericSend+0x108>
42000f20:	e2840024 	add	r0, r4, #36	; 0x24
42000f24:	eb0007d4 	bl	42002e7c <xTaskRemoveFromEventList>
42000f28:	e3500000 	cmp	r0, #0
42000f2c:	1f000000 	svcne	0x00000000
42000f30:	ea000001 	b	42000f3c <xQueueGenericSend+0x110>
42000f34:	e3500000 	cmp	r0, #0
42000f38:	1f000000 	svcne	0x00000000
42000f3c:	ebfffea5 	bl	420009d8 <vPortExitCritical>
42000f40:	e3a00001 	mov	r0, #1
42000f44:	e28dd01c 	add	sp, sp, #28
42000f48:	e8bd83f0 	pop	{r4, r5, r6, r7, r8, r9, pc}
42000f4c:	ebfffea1 	bl	420009d8 <vPortExitCritical>
42000f50:	ea000014 	b	42000fa8 <xQueueGenericSend+0x17c>
42000f54:	e1a0000d 	mov	r0, sp
42000f58:	eb00081c 	bl	42002fd0 <vTaskInternalSetTimeOutState>
42000f5c:	e3a06001 	mov	r6, #1
42000f60:	ebfffe9c 	bl	420009d8 <vPortExitCritical>
42000f64:	eb0004af 	bl	42002228 <vTaskSuspendAll>
42000f68:	ebfffe8a 	bl	42000998 <vPortEnterCritical>
42000f6c:	e1d404d4 	ldrsb	r0, [r4, #68]	; 0x44
42000f70:	e3700001 	cmn	r0, #1
42000f74:	05c49044 	strbeq	r9, [r4, #68]	; 0x44
42000f78:	e1d404d5 	ldrsb	r0, [r4, #69]	; 0x45
42000f7c:	e3700001 	cmn	r0, #1
42000f80:	05c49045 	strbeq	r9, [r4, #69]	; 0x45
42000f84:	ebfffe93 	bl	420009d8 <vPortExitCritical>
42000f88:	e28d1014 	add	r1, sp, #20
42000f8c:	e1a0000d 	mov	r0, sp
42000f90:	eb000814 	bl	42002fe8 <xTaskCheckForTimeOut>
42000f94:	e3500000 	cmp	r0, #0
42000f98:	0a000004 	beq	42000fb0 <xQueueGenericSend+0x184>
42000f9c:	e1a00004 	mov	r0, r4
42000fa0:	ebffff76 	bl	42000d80 <prvUnlockQueue>
42000fa4:	eb000429 	bl	42002050 <xTaskResumeAll>
42000fa8:	e3a00000 	mov	r0, #0
42000fac:	eaffffe4 	b	42000f44 <xQueueGenericSend+0x118>
42000fb0:	ebfffe78 	bl	42000998 <vPortEnterCritical>
42000fb4:	e5940038 	ldr	r0, [r4, #56]	; 0x38
42000fb8:	e594103c 	ldr	r1, [r4, #60]	; 0x3c
42000fbc:	e1500001 	cmp	r0, r1
42000fc0:	03a05001 	moveq	r5, #1
42000fc4:	13a05000 	movne	r5, #0
42000fc8:	ebfffe82 	bl	420009d8 <vPortExitCritical>
42000fcc:	e3550000 	cmp	r5, #0
42000fd0:	0a000008 	beq	42000ff8 <xQueueGenericSend+0x1cc>
42000fd4:	e59d1014 	ldr	r1, [sp, #20]
42000fd8:	e2840010 	add	r0, r4, #16
42000fdc:	eb00076d 	bl	42002d98 <vTaskPlaceOnEventList>
42000fe0:	e1a00004 	mov	r0, r4
42000fe4:	ebffff65 	bl	42000d80 <prvUnlockQueue>
42000fe8:	eb000418 	bl	42002050 <xTaskResumeAll>
42000fec:	e3500000 	cmp	r0, #0
42000ff0:	0f000000 	svceq	0x00000000
42000ff4:	eaffffac 	b	42000eac <xQueueGenericSend+0x80>
42000ff8:	e1a00004 	mov	r0, r4
42000ffc:	ebffff5f 	bl	42000d80 <prvUnlockQueue>
42001000:	eb000412 	bl	42002050 <xTaskResumeAll>
42001004:	eaffffa8 	b	42000eac <xQueueGenericSend+0x80>

42001008 <xQueueCreateMutex>:
42001008:	e1a02000 	mov	r2, r0
4200100c:	e3a01000 	mov	r1, #0
42001010:	e92d4010 	push	{r4, lr}
42001014:	e3a00001 	mov	r0, #1
42001018:	ebfffee1 	bl	42000ba4 <xQueueGenericCreate>
4200101c:	e1b04000 	movs	r4, r0
42001020:	0a000006 	beq	42001040 <xQueueCreateMutex+0x38>
42001024:	e3a01000 	mov	r1, #0
42001028:	e5801004 	str	r1, [r0, #4]
4200102c:	e1a03001 	mov	r3, r1
42001030:	e5801000 	str	r1, [r0]
42001034:	e1a02001 	mov	r2, r1
42001038:	e580100c 	str	r1, [r0, #12]
4200103c:	ebffff7a 	bl	42000e2c <xQueueGenericSend>
42001040:	e1a00004 	mov	r0, r4
42001044:	e8bd8010 	pop	{r4, pc}

42001048 <xQueueGiveMutexRecursive>:
42001048:	e92d4010 	push	{r4, lr}
4200104c:	e1b04000 	movs	r4, r0
42001050:	03001243 	movweq	r1, #579	; 0x243
42001054:	024f0fb9 	subeq	r0, pc, #740	; 0x2e4
42001058:	0bfffd39 	bleq	42000544 <vAssertCalled>
4200105c:	eb000818 	bl	420030c4 <xTaskGetCurrentTaskHandle>
42001060:	e5941004 	ldr	r1, [r4, #4]
42001064:	e1500001 	cmp	r0, r1
42001068:	13a00000 	movne	r0, #0
4200106c:	18bd8010 	popne	{r4, pc}
42001070:	e594000c 	ldr	r0, [r4, #12]
42001074:	e2500001 	subs	r0, r0, #1
42001078:	e584000c 	str	r0, [r4, #12]
4200107c:	1a000004 	bne	42001094 <xQueueGiveMutexRecursive+0x4c>
42001080:	e3a03000 	mov	r3, #0
42001084:	e1a00004 	mov	r0, r4
42001088:	e1a02003 	mov	r2, r3
4200108c:	e1a01003 	mov	r1, r3
42001090:	ebffff65 	bl	42000e2c <xQueueGenericSend>
42001094:	e3a00001 	mov	r0, #1
42001098:	e8bd8010 	pop	{r4, pc}

4200109c <xQueueSemaphoreTake>:
4200109c:	e92d40f3 	push	{r0, r1, r4, r5, r6, r7, lr}
420010a0:	e1b04000 	movs	r4, r0
420010a4:	e3a05000 	mov	r5, #0
420010a8:	e24dd00c 	sub	sp, sp, #12
420010ac:	e1a06005 	mov	r6, r5
420010b0:	03a01e57 	moveq	r1, #1392	; 0x570
420010b4:	024f0fd1 	subeq	r0, pc, #836	; 0x344
420010b8:	0bfffd21 	bleq	42000544 <vAssertCalled>
420010bc:	e5940040 	ldr	r0, [r4, #64]	; 0x40
420010c0:	e3500000 	cmp	r0, #0
420010c4:	13001574 	movwne	r1, #1396	; 0x574
420010c8:	124f0fd6 	subne	r0, pc, #856	; 0x358
420010cc:	1bfffd1c 	blne	42000544 <vAssertCalled>
420010d0:	eb0007fe 	bl	420030d0 <xTaskGetSchedulerState>
420010d4:	e3500000 	cmp	r0, #0
420010d8:	1a000004 	bne	420010f0 <xQueueSemaphoreTake+0x54>
420010dc:	e59d0010 	ldr	r0, [sp, #16]
420010e0:	e3500000 	cmp	r0, #0
420010e4:	13001579 	movwne	r1, #1401	; 0x579
420010e8:	124f0fde 	subne	r0, pc, #888	; 0x378
420010ec:	1bfffd14 	blne	42000544 <vAssertCalled>
420010f0:	e3a07000 	mov	r7, #0
420010f4:	ebfffe27 	bl	42000998 <vPortEnterCritical>
420010f8:	e5940038 	ldr	r0, [r4, #56]	; 0x38
420010fc:	e3500000 	cmp	r0, #0
42001100:	0a000011 	beq	4200114c <xQueueSemaphoreTake+0xb0>
42001104:	e2400001 	sub	r0, r0, #1
42001108:	e5840038 	str	r0, [r4, #56]	; 0x38
4200110c:	e5940000 	ldr	r0, [r4]
42001110:	e3500000 	cmp	r0, #0
42001114:	1a000001 	bne	42001120 <xQueueSemaphoreTake+0x84>
42001118:	eb00091f 	bl	4200359c <pvTaskIncrementMutexHeldCount>
4200111c:	e5840004 	str	r0, [r4, #4]
42001120:	e5940010 	ldr	r0, [r4, #16]
42001124:	e3500000 	cmp	r0, #0
42001128:	0a000003 	beq	4200113c <xQueueSemaphoreTake+0xa0>
4200112c:	e2840010 	add	r0, r4, #16
42001130:	eb000751 	bl	42002e7c <xTaskRemoveFromEventList>
42001134:	e3500000 	cmp	r0, #0
42001138:	1f000000 	svcne	0x00000000
4200113c:	ebfffe25 	bl	420009d8 <vPortExitCritical>
42001140:	e3a00001 	mov	r0, #1
42001144:	e28dd014 	add	sp, sp, #20
42001148:	e8bd80f0 	pop	{r4, r5, r6, r7, pc}
4200114c:	e59d0010 	ldr	r0, [sp, #16]
42001150:	e3500000 	cmp	r0, #0
42001154:	0a000002 	beq	42001164 <xQueueSemaphoreTake+0xc8>
42001158:	e3550000 	cmp	r5, #0
4200115c:	1a000009 	bne	42001188 <xQueueSemaphoreTake+0xec>
42001160:	ea000005 	b	4200117c <xQueueSemaphoreTake+0xe0>
42001164:	e3560000 	cmp	r6, #0
42001168:	130015c1 	movwne	r1, #1473	; 0x5c1
4200116c:	124f0fff 	subne	r0, pc, #1020	; 0x3fc
42001170:	1bfffcf3 	blne	42000544 <vAssertCalled>
42001174:	ebfffe17 	bl	420009d8 <vPortExitCritical>
42001178:	ea00003c 	b	42001270 <xQueueSemaphoreTake+0x1d4>
4200117c:	e1a0000d 	mov	r0, sp
42001180:	eb000792 	bl	42002fd0 <vTaskInternalSetTimeOutState>
42001184:	e3a05001 	mov	r5, #1
42001188:	ebfffe12 	bl	420009d8 <vPortExitCritical>
4200118c:	eb000425 	bl	42002228 <vTaskSuspendAll>
42001190:	ebfffe00 	bl	42000998 <vPortEnterCritical>
42001194:	e1d404d4 	ldrsb	r0, [r4, #68]	; 0x44
42001198:	e3700001 	cmn	r0, #1
4200119c:	05c47044 	strbeq	r7, [r4, #68]	; 0x44
420011a0:	e1d404d5 	ldrsb	r0, [r4, #69]	; 0x45
420011a4:	e3700001 	cmn	r0, #1
420011a8:	05c47045 	strbeq	r7, [r4, #69]	; 0x45
420011ac:	ebfffe09 	bl	420009d8 <vPortExitCritical>
420011b0:	e28d1010 	add	r1, sp, #16
420011b4:	e1a0000d 	mov	r0, sp
420011b8:	eb00078a 	bl	42002fe8 <xTaskCheckForTimeOut>
420011bc:	e3500000 	cmp	r0, #0
420011c0:	e1a00004 	mov	r0, r4
420011c4:	0a000011 	beq	42001210 <xQueueSemaphoreTake+0x174>
420011c8:	ebfffeec 	bl	42000d80 <prvUnlockQueue>
420011cc:	eb00039f 	bl	42002050 <xTaskResumeAll>
420011d0:	e1a00004 	mov	r0, r4
420011d4:	eb00029c 	bl	42001c4c <prvIsQueueEmpty>
420011d8:	e3500000 	cmp	r0, #0
420011dc:	0affffc4 	beq	420010f4 <xQueueSemaphoreTake+0x58>
420011e0:	e3560000 	cmp	r6, #0
420011e4:	0a000021 	beq	42001270 <xQueueSemaphoreTake+0x1d4>
420011e8:	ebfffdea 	bl	42000998 <vPortEnterCritical>
420011ec:	e5940024 	ldr	r0, [r4, #36]	; 0x24
420011f0:	e3500000 	cmp	r0, #0
420011f4:	15940030 	ldrne	r0, [r4, #48]	; 0x30
420011f8:	03a01000 	moveq	r1, #0
420011fc:	15900000 	ldrne	r0, [r0]
42001200:	12601007 	rsbne	r1, r0, #7
42001204:	e5940004 	ldr	r0, [r4, #4]
42001208:	eb000829 	bl	420032b4 <vTaskPriorityDisinheritAfterTimeout>
4200120c:	eaffffd8 	b	42001174 <xQueueSemaphoreTake+0xd8>
42001210:	eb00028d 	bl	42001c4c <prvIsQueueEmpty>
42001214:	e3500000 	cmp	r0, #0
42001218:	0a000010 	beq	42001260 <xQueueSemaphoreTake+0x1c4>
4200121c:	e5940000 	ldr	r0, [r4]
42001220:	e3500000 	cmp	r0, #0
42001224:	1a000004 	bne	4200123c <xQueueSemaphoreTake+0x1a0>
42001228:	ebfffdda 	bl	42000998 <vPortEnterCritical>
4200122c:	e5940004 	ldr	r0, [r4, #4]
42001230:	eb0007b0 	bl	420030f8 <xTaskPriorityInherit>
42001234:	e1a06000 	mov	r6, r0
42001238:	ebfffde6 	bl	420009d8 <vPortExitCritical>
4200123c:	e59d1010 	ldr	r1, [sp, #16]
42001240:	e2840024 	add	r0, r4, #36	; 0x24
42001244:	eb0006d3 	bl	42002d98 <vTaskPlaceOnEventList>
42001248:	e1a00004 	mov	r0, r4
4200124c:	ebfffecb 	bl	42000d80 <prvUnlockQueue>
42001250:	eb00037e 	bl	42002050 <xTaskResumeAll>
42001254:	e3500000 	cmp	r0, #0
42001258:	0f000000 	svceq	0x00000000
4200125c:	eaffffa4 	b	420010f4 <xQueueSemaphoreTake+0x58>
42001260:	e1a00004 	mov	r0, r4
42001264:	ebfffec5 	bl	42000d80 <prvUnlockQueue>
42001268:	eb000378 	bl	42002050 <xTaskResumeAll>
4200126c:	eaffffa0 	b	420010f4 <xQueueSemaphoreTake+0x58>
42001270:	e3a00000 	mov	r0, #0
42001274:	eaffffb2 	b	42001144 <xQueueSemaphoreTake+0xa8>

42001278 <xQueueTakeMutexRecursive>:
42001278:	e92d4070 	push	{r4, r5, r6, lr}
4200127c:	e1b04000 	movs	r4, r0
42001280:	059f09ec 	ldreq	r0, [pc, #2540]	; 42001c74 <prvIsQueueEmpty+0x28>
42001284:	e1a05001 	mov	r5, r1
42001288:	0300127a 	movweq	r1, #634	; 0x27a
4200128c:	0bfffcac 	bleq	42000544 <vAssertCalled>
42001290:	eb00078b 	bl	420030c4 <xTaskGetCurrentTaskHandle>
42001294:	e5941004 	ldr	r1, [r4, #4]
42001298:	e1500001 	cmp	r0, r1
4200129c:	1a000004 	bne	420012b4 <xQueueTakeMutexRecursive+0x3c>
420012a0:	e594000c 	ldr	r0, [r4, #12]
420012a4:	e2800001 	add	r0, r0, #1
420012a8:	e584000c 	str	r0, [r4, #12]
420012ac:	e3a00001 	mov	r0, #1
420012b0:	e8bd8070 	pop	{r4, r5, r6, pc}
420012b4:	e1a01005 	mov	r1, r5
420012b8:	e1a00004 	mov	r0, r4
420012bc:	ebffff76 	bl	4200109c <xQueueSemaphoreTake>
420012c0:	e3500000 	cmp	r0, #0
420012c4:	1594100c 	ldrne	r1, [r4, #12]
420012c8:	12811001 	addne	r1, r1, #1
420012cc:	1584100c 	strne	r1, [r4, #12]
420012d0:	e8bd8070 	pop	{r4, r5, r6, pc}

420012d4 <xQueueCreateCountingSemaphore>:
420012d4:	e92d4070 	push	{r4, r5, r6, lr}
420012d8:	e1b04000 	movs	r4, r0
420012dc:	059f0990 	ldreq	r0, [pc, #2448]	; 42001c74 <prvIsQueueEmpty+0x28>
420012e0:	e1a05001 	mov	r5, r1
420012e4:	030012bf 	movweq	r1, #703	; 0x2bf
420012e8:	0bfffc95 	bleq	42000544 <vAssertCalled>
420012ec:	e1550004 	cmp	r5, r4
420012f0:	859f097c 	ldrhi	r0, [pc, #2428]	; 42001c74 <prvIsQueueEmpty+0x28>
420012f4:	83a01d0b 	movhi	r1, #704	; 0x2c0
420012f8:	8bfffc91 	blhi	42000544 <vAssertCalled>
420012fc:	e3a02002 	mov	r2, #2
42001300:	e3a01000 	mov	r1, #0
42001304:	e1a00004 	mov	r0, r4
42001308:	ebfffe25 	bl	42000ba4 <xQueueGenericCreate>
4200130c:	e3500000 	cmp	r0, #0
42001310:	15805038 	strne	r5, [r0, #56]	; 0x38
42001314:	e8bd8070 	pop	{r4, r5, r6, pc}

42001318 <xQueueGenericSendFromISR>:
42001318:	e92d47f0 	push	{r4, r5, r6, r7, r8, r9, sl, lr}
4200131c:	e1b04000 	movs	r4, r0
42001320:	059f094c 	ldreq	r0, [pc, #2380]	; 42001c74 <prvIsQueueEmpty+0x28>
42001324:	e1a08001 	mov	r8, r1
42001328:	e1a05002 	mov	r5, r2
4200132c:	e1a07003 	mov	r7, r3
42001330:	030013a1 	movweq	r1, #929	; 0x3a1
42001334:	0bfffc82 	bleq	42000544 <vAssertCalled>
42001338:	e3580000 	cmp	r8, #0
4200133c:	1a000004 	bne	42001354 <xQueueGenericSendFromISR+0x3c>
42001340:	e5940040 	ldr	r0, [r4, #64]	; 0x40
42001344:	e3500000 	cmp	r0, #0
42001348:	159f0924 	ldrne	r0, [pc, #2340]	; 42001c74 <prvIsQueueEmpty+0x28>
4200134c:	130013a2 	movwne	r1, #930	; 0x3a2
42001350:	1bfffc7b 	blne	42000544 <vAssertCalled>
42001354:	e3570002 	cmp	r7, #2
42001358:	1a000004 	bne	42001370 <xQueueGenericSendFromISR+0x58>
4200135c:	e594003c 	ldr	r0, [r4, #60]	; 0x3c
42001360:	e3500001 	cmp	r0, #1
42001364:	159f0908 	ldrne	r0, [pc, #2312]	; 42001c74 <prvIsQueueEmpty+0x28>
42001368:	130013a3 	movwne	r1, #931	; 0x3a3
4200136c:	1bfffc74 	blne	42000544 <vAssertCalled>
42001370:	ebfffdd6 	bl	42000ad0 <vPortValidateInterruptPriority>
42001374:	ebfffd2c 	bl	4200082c <ulPortSetInterruptMask>
42001378:	e1a09000 	mov	r9, r0
4200137c:	e5940038 	ldr	r0, [r4, #56]	; 0x38
42001380:	e594103c 	ldr	r1, [r4, #60]	; 0x3c
42001384:	e1510000 	cmp	r1, r0
42001388:	8a000006 	bhi	420013a8 <xQueueGenericSendFromISR+0x90>
4200138c:	e3570002 	cmp	r7, #2
42001390:	13a04000 	movne	r4, #0
42001394:	0a000003 	beq	420013a8 <xQueueGenericSendFromISR+0x90>
42001398:	e1a00009 	mov	r0, r9
4200139c:	ebfffdc3 	bl	42000ab0 <vPortClearInterruptMask>
420013a0:	e1a00004 	mov	r0, r4
420013a4:	e8bd87f0 	pop	{r4, r5, r6, r7, r8, r9, sl, pc}
420013a8:	e1d464d5 	ldrsb	r6, [r4, #69]	; 0x45
420013ac:	e1a02007 	mov	r2, r7
420013b0:	e1a01008 	mov	r1, r8
420013b4:	e1a00004 	mov	r0, r4
420013b8:	ebfffe15 	bl	42000c14 <prvCopyDataToQueue>
420013bc:	e3760001 	cmn	r6, #1
420013c0:	12860001 	addne	r0, r6, #1
420013c4:	15c40045 	strbne	r0, [r4, #69]	; 0x45
420013c8:	0a000001 	beq	420013d4 <xQueueGenericSendFromISR+0xbc>
420013cc:	e3a04001 	mov	r4, #1
420013d0:	eafffff0 	b	42001398 <xQueueGenericSendFromISR+0x80>
420013d4:	e5940048 	ldr	r0, [r4, #72]	; 0x48
420013d8:	e3a06001 	mov	r6, #1
420013dc:	e3500000 	cmp	r0, #0
420013e0:	0a000003 	beq	420013f4 <xQueueGenericSendFromISR+0xdc>
420013e4:	e1a01007 	mov	r1, r7
420013e8:	e1a00004 	mov	r0, r4
420013ec:	ebfffe3a 	bl	42000cdc <prvNotifyQueueSetContainer>
420013f0:	ea000004 	b	42001408 <xQueueGenericSendFromISR+0xf0>
420013f4:	e5940024 	ldr	r0, [r4, #36]	; 0x24
420013f8:	e3500000 	cmp	r0, #0
420013fc:	0afffff2 	beq	420013cc <xQueueGenericSendFromISR+0xb4>
42001400:	e2840024 	add	r0, r4, #36	; 0x24
42001404:	eb00069c 	bl	42002e7c <xTaskRemoveFromEventList>
42001408:	e3500000 	cmp	r0, #0
4200140c:	13550000 	cmpne	r5, #0
42001410:	15856000 	strne	r6, [r5]
42001414:	eaffffec 	b	420013cc <xQueueGenericSendFromISR+0xb4>

42001418 <xQueueGiveFromISR>:
42001418:	e92d41f0 	push	{r4, r5, r6, r7, r8, lr}
4200141c:	e1b04000 	movs	r4, r0
42001420:	059f084c 	ldreq	r0, [pc, #2124]	; 42001c74 <prvIsQueueEmpty+0x28>
42001424:	e1a05001 	mov	r5, r1
42001428:	0300143e 	movweq	r1, #1086	; 0x43e
4200142c:	0bfffc44 	bleq	42000544 <vAssertCalled>
42001430:	e5940040 	ldr	r0, [r4, #64]	; 0x40
42001434:	e3500000 	cmp	r0, #0
42001438:	159f0834 	ldrne	r0, [pc, #2100]	; 42001c74 <prvIsQueueEmpty+0x28>
4200143c:	13001442 	movwne	r1, #1090	; 0x442
42001440:	1bfffc3f 	blne	42000544 <vAssertCalled>
42001444:	e5940000 	ldr	r0, [r4]
42001448:	e3500000 	cmp	r0, #0
4200144c:	1a000004 	bne	42001464 <xQueueGiveFromISR+0x4c>
42001450:	e5940004 	ldr	r0, [r4, #4]
42001454:	e3500000 	cmp	r0, #0
42001458:	159f0814 	ldrne	r0, [pc, #2068]	; 42001c74 <prvIsQueueEmpty+0x28>
4200145c:	13001447 	movwne	r1, #1095	; 0x447
42001460:	1bfffc37 	blne	42000544 <vAssertCalled>
42001464:	ebfffd99 	bl	42000ad0 <vPortValidateInterruptPriority>
42001468:	ebfffcef 	bl	4200082c <ulPortSetInterruptMask>
4200146c:	e1a06000 	mov	r6, r0
42001470:	e5940038 	ldr	r0, [r4, #56]	; 0x38
42001474:	e594103c 	ldr	r1, [r4, #60]	; 0x3c
42001478:	e1510000 	cmp	r1, r0
4200147c:	93a04000 	movls	r4, #0
42001480:	9a000007 	bls	420014a4 <xQueueGiveFromISR+0x8c>
42001484:	e1d414d5 	ldrsb	r1, [r4, #69]	; 0x45
42001488:	e2800001 	add	r0, r0, #1
4200148c:	e5840038 	str	r0, [r4, #56]	; 0x38
42001490:	e3710001 	cmn	r1, #1
42001494:	12810001 	addne	r0, r1, #1
42001498:	15c40045 	strbne	r0, [r4, #69]	; 0x45
4200149c:	0a000004 	beq	420014b4 <xQueueGiveFromISR+0x9c>
420014a0:	e3a04001 	mov	r4, #1
420014a4:	e1a00006 	mov	r0, r6
420014a8:	ebfffd80 	bl	42000ab0 <vPortClearInterruptMask>
420014ac:	e1a00004 	mov	r0, r4
420014b0:	e8bd81f0 	pop	{r4, r5, r6, r7, r8, pc}
420014b4:	e5940048 	ldr	r0, [r4, #72]	; 0x48
420014b8:	e3a07001 	mov	r7, #1
420014bc:	e3500000 	cmp	r0, #0
420014c0:	0a000003 	beq	420014d4 <xQueueGiveFromISR+0xbc>
420014c4:	e3a01000 	mov	r1, #0
420014c8:	e1a00004 	mov	r0, r4
420014cc:	ebfffe02 	bl	42000cdc <prvNotifyQueueSetContainer>
420014d0:	ea000004 	b	420014e8 <xQueueGiveFromISR+0xd0>
420014d4:	e5940024 	ldr	r0, [r4, #36]	; 0x24
420014d8:	e3500000 	cmp	r0, #0
420014dc:	0affffef 	beq	420014a0 <xQueueGiveFromISR+0x88>
420014e0:	e2840024 	add	r0, r4, #36	; 0x24
420014e4:	eb000664 	bl	42002e7c <xTaskRemoveFromEventList>
420014e8:	e3500000 	cmp	r0, #0
420014ec:	13550000 	cmpne	r5, #0
420014f0:	15857000 	strne	r7, [r5]
420014f4:	eaffffe9 	b	420014a0 <xQueueGiveFromISR+0x88>

420014f8 <prvCopyDataFromQueue>:
420014f8:	e92d0030 	push	{r4, r5}
420014fc:	e1a03001 	mov	r3, r1
42001500:	e5902040 	ldr	r2, [r0, #64]	; 0x40
42001504:	e3520000 	cmp	r2, #0
42001508:	0a000009 	beq	42001534 <prvCopyDataFromQueue+0x3c>
4200150c:	e590100c 	ldr	r1, [r0, #12]
42001510:	e0811002 	add	r1, r1, r2
42001514:	e580100c 	str	r1, [r0, #12]
42001518:	e5904004 	ldr	r4, [r0, #4]
4200151c:	e1510004 	cmp	r1, r4
42001520:	25901000 	ldrcs	r1, [r0]
42001524:	2580100c 	strcs	r1, [r0, #12]
42001528:	e1a00003 	mov	r0, r3
4200152c:	e8bd0030 	pop	{r4, r5}
42001530:	ea000d47 	b	42004a54 <__aeabi_memcpy>
42001534:	e8bd0030 	pop	{r4, r5}
42001538:	e12fff1e 	bx	lr

4200153c <xQueueReceive>:
4200153c:	e92d41f7 	push	{r0, r1, r2, r4, r5, r6, r7, r8, lr}
42001540:	e1b04000 	movs	r4, r0
42001544:	059f0728 	ldreq	r0, [pc, #1832]	; 42001c74 <prvIsQueueEmpty+0x28>
42001548:	e24dd00c 	sub	sp, sp, #12
4200154c:	e1a07001 	mov	r7, r1
42001550:	e3a05000 	mov	r5, #0
42001554:	030014de 	movweq	r1, #1246	; 0x4de
42001558:	0bfffbf9 	bleq	42000544 <vAssertCalled>
4200155c:	e3570000 	cmp	r7, #0
42001560:	1a000004 	bne	42001578 <xQueueReceive+0x3c>
42001564:	e5940040 	ldr	r0, [r4, #64]	; 0x40
42001568:	e3500000 	cmp	r0, #0
4200156c:	159f0700 	ldrne	r0, [pc, #1792]	; 42001c74 <prvIsQueueEmpty+0x28>
42001570:	130014e2 	movwne	r1, #1250	; 0x4e2
42001574:	1bfffbf2 	blne	42000544 <vAssertCalled>
42001578:	eb0006d4 	bl	420030d0 <xTaskGetSchedulerState>
4200157c:	e3500000 	cmp	r0, #0
42001580:	1a000004 	bne	42001598 <xQueueReceive+0x5c>
42001584:	e59d0014 	ldr	r0, [sp, #20]
42001588:	e3500000 	cmp	r0, #0
4200158c:	159f06e0 	ldrne	r0, [pc, #1760]	; 42001c74 <prvIsQueueEmpty+0x28>
42001590:	130014e7 	movwne	r1, #1255	; 0x4e7
42001594:	1bfffbea 	blne	42000544 <vAssertCalled>
42001598:	e3a08000 	mov	r8, #0
4200159c:	ebfffcfd 	bl	42000998 <vPortEnterCritical>
420015a0:	e5946038 	ldr	r6, [r4, #56]	; 0x38
420015a4:	e3560000 	cmp	r6, #0
420015a8:	0a00000f 	beq	420015ec <xQueueReceive+0xb0>
420015ac:	e1a01007 	mov	r1, r7
420015b0:	e1a00004 	mov	r0, r4
420015b4:	ebffffcf 	bl	420014f8 <prvCopyDataFromQueue>
420015b8:	e2460001 	sub	r0, r6, #1
420015bc:	e5840038 	str	r0, [r4, #56]	; 0x38
420015c0:	e5940010 	ldr	r0, [r4, #16]
420015c4:	e3500000 	cmp	r0, #0
420015c8:	0a000003 	beq	420015dc <xQueueReceive+0xa0>
420015cc:	e2840010 	add	r0, r4, #16
420015d0:	eb000629 	bl	42002e7c <xTaskRemoveFromEventList>
420015d4:	e3500000 	cmp	r0, #0
420015d8:	1f000000 	svcne	0x00000000
420015dc:	ebfffcfd 	bl	420009d8 <vPortExitCritical>
420015e0:	e3a00001 	mov	r0, #1
420015e4:	e28dd018 	add	sp, sp, #24
420015e8:	e8bd81f0 	pop	{r4, r5, r6, r7, r8, pc}
420015ec:	e59d0014 	ldr	r0, [sp, #20]
420015f0:	e3500000 	cmp	r0, #0
420015f4:	0a000002 	beq	42001604 <xQueueReceive+0xc8>
420015f8:	e3550000 	cmp	r5, #0
420015fc:	1a000005 	bne	42001618 <xQueueReceive+0xdc>
42001600:	ea000001 	b	4200160c <xQueueReceive+0xd0>
42001604:	ebfffcf3 	bl	420009d8 <vPortExitCritical>
42001608:	ea000018 	b	42001670 <xQueueReceive+0x134>
4200160c:	e1a0000d 	mov	r0, sp
42001610:	eb00066e 	bl	42002fd0 <vTaskInternalSetTimeOutState>
42001614:	e3a05001 	mov	r5, #1
42001618:	ebfffcee 	bl	420009d8 <vPortExitCritical>
4200161c:	eb000301 	bl	42002228 <vTaskSuspendAll>
42001620:	ebfffcdc 	bl	42000998 <vPortEnterCritical>
42001624:	e1d404d4 	ldrsb	r0, [r4, #68]	; 0x44
42001628:	e3700001 	cmn	r0, #1
4200162c:	05c48044 	strbeq	r8, [r4, #68]	; 0x44
42001630:	e1d404d5 	ldrsb	r0, [r4, #69]	; 0x45
42001634:	e3700001 	cmn	r0, #1
42001638:	05c48045 	strbeq	r8, [r4, #69]	; 0x45
4200163c:	ebfffce5 	bl	420009d8 <vPortExitCritical>
42001640:	e28d1014 	add	r1, sp, #20
42001644:	e1a0000d 	mov	r0, sp
42001648:	eb000666 	bl	42002fe8 <xTaskCheckForTimeOut>
4200164c:	e3500000 	cmp	r0, #0
42001650:	e1a00004 	mov	r0, r4
42001654:	0a000007 	beq	42001678 <xQueueReceive+0x13c>
42001658:	ebfffdc8 	bl	42000d80 <prvUnlockQueue>
4200165c:	eb00027b 	bl	42002050 <xTaskResumeAll>
42001660:	e1a00004 	mov	r0, r4
42001664:	eb000178 	bl	42001c4c <prvIsQueueEmpty>
42001668:	e3500000 	cmp	r0, #0
4200166c:	0affffca 	beq	4200159c <xQueueReceive+0x60>
42001670:	e3a00000 	mov	r0, #0
42001674:	eaffffda 	b	420015e4 <xQueueReceive+0xa8>
42001678:	eb000173 	bl	42001c4c <prvIsQueueEmpty>
4200167c:	e3500000 	cmp	r0, #0
42001680:	0a000008 	beq	420016a8 <xQueueReceive+0x16c>
42001684:	e59d1014 	ldr	r1, [sp, #20]
42001688:	e2840024 	add	r0, r4, #36	; 0x24
4200168c:	eb0005c1 	bl	42002d98 <vTaskPlaceOnEventList>
42001690:	e1a00004 	mov	r0, r4
42001694:	ebfffdb9 	bl	42000d80 <prvUnlockQueue>
42001698:	eb00026c 	bl	42002050 <xTaskResumeAll>
4200169c:	e3500000 	cmp	r0, #0
420016a0:	0f000000 	svceq	0x00000000
420016a4:	eaffffbc 	b	4200159c <xQueueReceive+0x60>
420016a8:	e1a00004 	mov	r0, r4
420016ac:	ebfffdb3 	bl	42000d80 <prvUnlockQueue>
420016b0:	eb000266 	bl	42002050 <xTaskResumeAll>
420016b4:	eaffffb8 	b	4200159c <xQueueReceive+0x60>

420016b8 <xQueuePeek>:
420016b8:	e92d40f7 	push	{r0, r1, r2, r4, r5, r6, r7, lr}
420016bc:	e1b04000 	movs	r4, r0
420016c0:	059f05ac 	ldreq	r0, [pc, #1452]	; 42001c74 <prvIsQueueEmpty+0x28>
420016c4:	e24dd008 	sub	sp, sp, #8
420016c8:	e1a06001 	mov	r6, r1
420016cc:	e3a05000 	mov	r5, #0
420016d0:	03001648 	movweq	r1, #1608	; 0x648
420016d4:	0bfffb9a 	bleq	42000544 <vAssertCalled>
420016d8:	e3560000 	cmp	r6, #0
420016dc:	1a000004 	bne	420016f4 <xQueuePeek+0x3c>
420016e0:	e5940040 	ldr	r0, [r4, #64]	; 0x40
420016e4:	e3500000 	cmp	r0, #0
420016e8:	159f0584 	ldrne	r0, [pc, #1412]	; 42001c74 <prvIsQueueEmpty+0x28>
420016ec:	1300164c 	movwne	r1, #1612	; 0x64c
420016f0:	1bfffb93 	blne	42000544 <vAssertCalled>
420016f4:	eb000675 	bl	420030d0 <xTaskGetSchedulerState>
420016f8:	e3500000 	cmp	r0, #0
420016fc:	1a000004 	bne	42001714 <xQueuePeek+0x5c>
42001700:	e59d0010 	ldr	r0, [sp, #16]
42001704:	e3500000 	cmp	r0, #0
42001708:	159f0564 	ldrne	r0, [pc, #1380]	; 42001c74 <prvIsQueueEmpty+0x28>
4200170c:	13001651 	movwne	r1, #1617	; 0x651
42001710:	1bfffb8b 	blne	42000544 <vAssertCalled>
42001714:	e3a07000 	mov	r7, #0
42001718:	ebfffc9e 	bl	42000998 <vPortEnterCritical>
4200171c:	e5940038 	ldr	r0, [r4, #56]	; 0x38
42001720:	e3500000 	cmp	r0, #0
42001724:	0a00000f 	beq	42001768 <xQueuePeek+0xb0>
42001728:	e594500c 	ldr	r5, [r4, #12]
4200172c:	e1a01006 	mov	r1, r6
42001730:	e1a00004 	mov	r0, r4
42001734:	ebffff6f 	bl	420014f8 <prvCopyDataFromQueue>
42001738:	e584500c 	str	r5, [r4, #12]
4200173c:	e5940024 	ldr	r0, [r4, #36]	; 0x24
42001740:	e3500000 	cmp	r0, #0
42001744:	0a000003 	beq	42001758 <xQueuePeek+0xa0>
42001748:	e2840024 	add	r0, r4, #36	; 0x24
4200174c:	eb0005ca 	bl	42002e7c <xTaskRemoveFromEventList>
42001750:	e3500000 	cmp	r0, #0
42001754:	1f000000 	svcne	0x00000000
42001758:	ebfffc9e 	bl	420009d8 <vPortExitCritical>
4200175c:	e3a00001 	mov	r0, #1
42001760:	e28dd014 	add	sp, sp, #20
42001764:	e8bd80f0 	pop	{r4, r5, r6, r7, pc}
42001768:	e59d0010 	ldr	r0, [sp, #16]
4200176c:	e3500000 	cmp	r0, #0
42001770:	0a000002 	beq	42001780 <xQueuePeek+0xc8>
42001774:	e3550000 	cmp	r5, #0
42001778:	1a000005 	bne	42001794 <xQueuePeek+0xdc>
4200177c:	ea000001 	b	42001788 <xQueuePeek+0xd0>
42001780:	ebfffc94 	bl	420009d8 <vPortExitCritical>
42001784:	ea000018 	b	420017ec <xQueuePeek+0x134>
42001788:	e1a0000d 	mov	r0, sp
4200178c:	eb00060f 	bl	42002fd0 <vTaskInternalSetTimeOutState>
42001790:	e3a05001 	mov	r5, #1
42001794:	ebfffc8f 	bl	420009d8 <vPortExitCritical>
42001798:	eb0002a2 	bl	42002228 <vTaskSuspendAll>
4200179c:	ebfffc7d 	bl	42000998 <vPortEnterCritical>
420017a0:	e1d404d4 	ldrsb	r0, [r4, #68]	; 0x44
420017a4:	e3700001 	cmn	r0, #1
420017a8:	05c47044 	strbeq	r7, [r4, #68]	; 0x44
420017ac:	e1d404d5 	ldrsb	r0, [r4, #69]	; 0x45
420017b0:	e3700001 	cmn	r0, #1
420017b4:	05c47045 	strbeq	r7, [r4, #69]	; 0x45
420017b8:	ebfffc86 	bl	420009d8 <vPortExitCritical>
420017bc:	e28d1010 	add	r1, sp, #16
420017c0:	e1a0000d 	mov	r0, sp
420017c4:	eb000607 	bl	42002fe8 <xTaskCheckForTimeOut>
420017c8:	e3500000 	cmp	r0, #0
420017cc:	e1a00004 	mov	r0, r4
420017d0:	0a000007 	beq	420017f4 <xQueuePeek+0x13c>
420017d4:	ebfffd69 	bl	42000d80 <prvUnlockQueue>
420017d8:	eb00021c 	bl	42002050 <xTaskResumeAll>
420017dc:	e1a00004 	mov	r0, r4
420017e0:	eb000119 	bl	42001c4c <prvIsQueueEmpty>
420017e4:	e3500000 	cmp	r0, #0
420017e8:	0affffca 	beq	42001718 <xQueuePeek+0x60>
420017ec:	e3a00000 	mov	r0, #0
420017f0:	eaffffda 	b	42001760 <xQueuePeek+0xa8>
420017f4:	eb000114 	bl	42001c4c <prvIsQueueEmpty>
420017f8:	e3500000 	cmp	r0, #0
420017fc:	0a000008 	beq	42001824 <xQueuePeek+0x16c>
42001800:	e59d1010 	ldr	r1, [sp, #16]
42001804:	e2840024 	add	r0, r4, #36	; 0x24
42001808:	eb000562 	bl	42002d98 <vTaskPlaceOnEventList>
4200180c:	e1a00004 	mov	r0, r4
42001810:	ebfffd5a 	bl	42000d80 <prvUnlockQueue>
42001814:	eb00020d 	bl	42002050 <xTaskResumeAll>
42001818:	e3500000 	cmp	r0, #0
4200181c:	0f000000 	svceq	0x00000000
42001820:	eaffffbc 	b	42001718 <xQueuePeek+0x60>
42001824:	e1a00004 	mov	r0, r4
42001828:	ebfffd54 	bl	42000d80 <prvUnlockQueue>
4200182c:	eb000207 	bl	42002050 <xTaskResumeAll>
42001830:	eaffffb8 	b	42001718 <xQueuePeek+0x60>

42001834 <xQueueReceiveFromISR>:
42001834:	e92d47f0 	push	{r4, r5, r6, r7, r8, r9, sl, lr}
42001838:	e1b04000 	movs	r4, r0
4200183c:	059f0430 	ldreq	r0, [pc, #1072]	; 42001c74 <prvIsQueueEmpty+0x28>
42001840:	e1a08001 	mov	r8, r1
42001844:	e1a07002 	mov	r7, r2
42001848:	030016dc 	movweq	r1, #1756	; 0x6dc
4200184c:	0bfffb3c 	bleq	42000544 <vAssertCalled>
42001850:	e3580000 	cmp	r8, #0
42001854:	1a000004 	bne	4200186c <xQueueReceiveFromISR+0x38>
42001858:	e5940040 	ldr	r0, [r4, #64]	; 0x40
4200185c:	e3500000 	cmp	r0, #0
42001860:	159f040c 	ldrne	r0, [pc, #1036]	; 42001c74 <prvIsQueueEmpty+0x28>
42001864:	130016dd 	movwne	r1, #1757	; 0x6dd
42001868:	1bfffb35 	blne	42000544 <vAssertCalled>
4200186c:	ebfffc97 	bl	42000ad0 <vPortValidateInterruptPriority>
42001870:	ebfffbed 	bl	4200082c <ulPortSetInterruptMask>
42001874:	e5945038 	ldr	r5, [r4, #56]	; 0x38
42001878:	e1a09000 	mov	r9, r0
4200187c:	e3550000 	cmp	r5, #0
42001880:	03a04000 	moveq	r4, #0
42001884:	0a00000a 	beq	420018b4 <xQueueReceiveFromISR+0x80>
42001888:	e1d464d4 	ldrsb	r6, [r4, #68]	; 0x44
4200188c:	e1a01008 	mov	r1, r8
42001890:	e1a00004 	mov	r0, r4
42001894:	ebffff17 	bl	420014f8 <prvCopyDataFromQueue>
42001898:	e2450001 	sub	r0, r5, #1
4200189c:	e5840038 	str	r0, [r4, #56]	; 0x38
420018a0:	e3760001 	cmn	r6, #1
420018a4:	12860001 	addne	r0, r6, #1
420018a8:	15c40044 	strbne	r0, [r4, #68]	; 0x44
420018ac:	0a000004 	beq	420018c4 <xQueueReceiveFromISR+0x90>
420018b0:	e3a04001 	mov	r4, #1
420018b4:	e1a00009 	mov	r0, r9
420018b8:	ebfffc7c 	bl	42000ab0 <vPortClearInterruptMask>
420018bc:	e1a00004 	mov	r0, r4
420018c0:	e8bd87f0 	pop	{r4, r5, r6, r7, r8, r9, sl, pc}
420018c4:	e5940010 	ldr	r0, [r4, #16]
420018c8:	e3500000 	cmp	r0, #0
420018cc:	0afffff7 	beq	420018b0 <xQueueReceiveFromISR+0x7c>
420018d0:	e2840010 	add	r0, r4, #16
420018d4:	eb000568 	bl	42002e7c <xTaskRemoveFromEventList>
420018d8:	e3500000 	cmp	r0, #0
420018dc:	13570000 	cmpne	r7, #0
420018e0:	13a00001 	movne	r0, #1
420018e4:	15870000 	strne	r0, [r7]
420018e8:	eafffff0 	b	420018b0 <xQueueReceiveFromISR+0x7c>

420018ec <xQueuePeekFromISR>:
420018ec:	e92d4070 	push	{r4, r5, r6, lr}
420018f0:	e1b04000 	movs	r4, r0
420018f4:	059f0378 	ldreq	r0, [pc, #888]	; 42001c74 <prvIsQueueEmpty+0x28>
420018f8:	e1a06001 	mov	r6, r1
420018fc:	03001738 	movweq	r1, #1848	; 0x738
42001900:	ed2d8b02 	vpush	{d8}
42001904:	0bfffb0e 	bleq	42000544 <vAssertCalled>
42001908:	e3560000 	cmp	r6, #0
4200190c:	1a000005 	bne	42001928 <xQueuePeekFromISR+0x3c>
42001910:	e5940040 	ldr	r0, [r4, #64]	; 0x40
42001914:	e3500000 	cmp	r0, #0
42001918:	0a000005 	beq	42001934 <xQueuePeekFromISR+0x48>
4200191c:	e3001739 	movw	r1, #1849	; 0x739
42001920:	e59f034c 	ldr	r0, [pc, #844]	; 42001c74 <prvIsQueueEmpty+0x28>
42001924:	ebfffb06 	bl	42000544 <vAssertCalled>
42001928:	e5940040 	ldr	r0, [r4, #64]	; 0x40
4200192c:	e3500000 	cmp	r0, #0
42001930:	1a000002 	bne	42001940 <xQueuePeekFromISR+0x54>
42001934:	e300173a 	movw	r1, #1850	; 0x73a
42001938:	e59f0334 	ldr	r0, [pc, #820]	; 42001c74 <prvIsQueueEmpty+0x28>
4200193c:	ebfffb00 	bl	42000544 <vAssertCalled>
42001940:	ebfffc62 	bl	42000ad0 <vPortValidateInterruptPriority>
42001944:	ebfffbb8 	bl	4200082c <ulPortSetInterruptMask>
42001948:	e1a05000 	mov	r5, r0
4200194c:	e5940038 	ldr	r0, [r4, #56]	; 0x38
42001950:	e3500000 	cmp	r0, #0
42001954:	03a04000 	moveq	r4, #0
42001958:	0a000005 	beq	42001974 <xQueuePeekFromISR+0x88>
4200195c:	e1a01006 	mov	r1, r6
42001960:	e1a00004 	mov	r0, r4
42001964:	ed948a03 	vldr	s16, [r4, #12]
42001968:	ebfffee2 	bl	420014f8 <prvCopyDataFromQueue>
4200196c:	ed848a03 	vstr	s16, [r4, #12]
42001970:	e3a04001 	mov	r4, #1
42001974:	e1a00005 	mov	r0, r5
42001978:	ebfffc4c 	bl	42000ab0 <vPortClearInterruptMask>
4200197c:	ecbd8b02 	vpop	{d8}
42001980:	e1a00004 	mov	r0, r4
42001984:	e8bd8070 	pop	{r4, r5, r6, pc}

42001988 <uxQueueMessagesWaiting>:
42001988:	e92d4010 	push	{r4, lr}
4200198c:	e1b04000 	movs	r4, r0
42001990:	059f02dc 	ldreq	r0, [pc, #732]	; 42001c74 <prvIsQueueEmpty+0x28>
42001994:	0300176b 	movweq	r1, #1899	; 0x76b
42001998:	0bfffae9 	bleq	42000544 <vAssertCalled>
4200199c:	ebfffbfd 	bl	42000998 <vPortEnterCritical>
420019a0:	e5944038 	ldr	r4, [r4, #56]	; 0x38
420019a4:	ebfffc0b 	bl	420009d8 <vPortExitCritical>
420019a8:	e1a00004 	mov	r0, r4
420019ac:	e8bd8010 	pop	{r4, pc}

420019b0 <uxQueueSpacesAvailable>:
420019b0:	e92d4010 	push	{r4, lr}
420019b4:	e1b04000 	movs	r4, r0
420019b8:	059f02b4 	ldreq	r0, [pc, #692]	; 42001c74 <prvIsQueueEmpty+0x28>
420019bc:	0300177d 	movweq	r1, #1917	; 0x77d
420019c0:	0bfffadf 	bleq	42000544 <vAssertCalled>
420019c4:	ebfffbf3 	bl	42000998 <vPortEnterCritical>
420019c8:	e5b41038 	ldr	r1, [r4, #56]!	; 0x38
420019cc:	e5940004 	ldr	r0, [r4, #4]
420019d0:	e0404001 	sub	r4, r0, r1
420019d4:	ebfffbff 	bl	420009d8 <vPortExitCritical>
420019d8:	e1a00004 	mov	r0, r4
420019dc:	e8bd8010 	pop	{r4, pc}

420019e0 <uxQueueMessagesWaitingFromISR>:
420019e0:	e92d4010 	push	{r4, lr}
420019e4:	e1b04000 	movs	r4, r0
420019e8:	059f0284 	ldreq	r0, [pc, #644]	; 42001c74 <prvIsQueueEmpty+0x28>
420019ec:	0300178d 	movweq	r1, #1933	; 0x78d
420019f0:	0bfffad3 	bleq	42000544 <vAssertCalled>
420019f4:	e5940038 	ldr	r0, [r4, #56]	; 0x38
420019f8:	e8bd8010 	pop	{r4, pc}

420019fc <vQueueUnregisterQueue>:
420019fc:	e59f2274 	ldr	r2, [pc, #628]	; 42001c78 <prvIsQueueEmpty+0x2c>
42001a00:	e3a01000 	mov	r1, #0
42001a04:	e0823181 	add	r3, r2, r1, lsl #3
42001a08:	e5933004 	ldr	r3, [r3, #4]
42001a0c:	e1530000 	cmp	r3, r0
42001a10:	1a000004 	bne	42001a28 <vQueueUnregisterQueue+0x2c>
42001a14:	e3a00000 	mov	r0, #0
42001a18:	e7820181 	str	r0, [r2, r1, lsl #3]
42001a1c:	e0821181 	add	r1, r2, r1, lsl #3
42001a20:	e5810004 	str	r0, [r1, #4]
42001a24:	e12fff1e 	bx	lr
42001a28:	e2811001 	add	r1, r1, #1
42001a2c:	e3510008 	cmp	r1, #8
42001a30:	3afffff3 	bcc	42001a04 <vQueueUnregisterQueue+0x8>
42001a34:	e12fff1e 	bx	lr

42001a38 <vQueueDelete>:
42001a38:	e92d4010 	push	{r4, lr}
42001a3c:	e1b04000 	movs	r4, r0
42001a40:	059f022c 	ldreq	r0, [pc, #556]	; 42001c74 <prvIsQueueEmpty+0x28>
42001a44:	03001799 	movweq	r1, #1945	; 0x799
42001a48:	0bfffabd 	bleq	42000544 <vAssertCalled>
42001a4c:	e1a00004 	mov	r0, r4
42001a50:	ebffffe9 	bl	420019fc <vQueueUnregisterQueue>
42001a54:	e1a00004 	mov	r0, r4
42001a58:	e8bd4010 	pop	{r4, lr}
42001a5c:	eafffa1c 	b	420002d4 <vPortFree>

42001a60 <uxQueueGetQueueNumber>:
42001a60:	e590004c 	ldr	r0, [r0, #76]	; 0x4c
42001a64:	e12fff1e 	bx	lr

42001a68 <vQueueSetQueueNumber>:
42001a68:	e580104c 	str	r1, [r0, #76]	; 0x4c
42001a6c:	e12fff1e 	bx	lr

42001a70 <ucQueueGetQueueType>:
42001a70:	e5d00050 	ldrb	r0, [r0, #80]	; 0x50
42001a74:	e12fff1e 	bx	lr

42001a78 <xQueueIsQueueEmptyFromISR>:
42001a78:	e92d4010 	push	{r4, lr}
42001a7c:	e1b04000 	movs	r4, r0
42001a80:	059f01ec 	ldreq	r0, [pc, #492]	; 42001c74 <prvIsQueueEmpty+0x28>
42001a84:	030018ea 	movweq	r1, #2282	; 0x8ea
42001a88:	0bfffaad 	bleq	42000544 <vAssertCalled>
42001a8c:	e5940038 	ldr	r0, [r4, #56]	; 0x38
42001a90:	e3500000 	cmp	r0, #0
42001a94:	03a00001 	moveq	r0, #1
42001a98:	13a00000 	movne	r0, #0
42001a9c:	e8bd8010 	pop	{r4, pc}

42001aa0 <xQueueIsQueueFullFromISR>:
42001aa0:	e92d4010 	push	{r4, lr}
42001aa4:	e1b04000 	movs	r4, r0
42001aa8:	059f01c4 	ldreq	r0, [pc, #452]	; 42001c74 <prvIsQueueEmpty+0x28>
42001aac:	03001911 	movweq	r1, #2321	; 0x911
42001ab0:	0bfffaa3 	bleq	42000544 <vAssertCalled>
42001ab4:	e5940038 	ldr	r0, [r4, #56]	; 0x38
42001ab8:	e594103c 	ldr	r1, [r4, #60]	; 0x3c
42001abc:	e1500001 	cmp	r0, r1
42001ac0:	03a00001 	moveq	r0, #1
42001ac4:	13a00000 	movne	r0, #0
42001ac8:	e8bd8010 	pop	{r4, pc}

42001acc <vQueueAddToRegistry>:
42001acc:	e59f31a4 	ldr	r3, [pc, #420]	; 42001c78 <prvIsQueueEmpty+0x2c>
42001ad0:	e3a02000 	mov	r2, #0
42001ad4:	e92d4010 	push	{r4, lr}
42001ad8:	e7934182 	ldr	r4, [r3, r2, lsl #3]
42001adc:	e3540000 	cmp	r4, #0
42001ae0:	07831182 	streq	r1, [r3, r2, lsl #3]
42001ae4:	00831182 	addeq	r1, r3, r2, lsl #3
42001ae8:	05810004 	streq	r0, [r1, #4]
42001aec:	08bd8010 	popeq	{r4, pc}
42001af0:	e2822001 	add	r2, r2, #1
42001af4:	e3520008 	cmp	r2, #8
42001af8:	3afffff6 	bcc	42001ad8 <vQueueAddToRegistry+0xc>
42001afc:	e8bd8010 	pop	{r4, pc}

42001b00 <pcQueueGetName>:
42001b00:	e59f2170 	ldr	r2, [pc, #368]	; 42001c78 <prvIsQueueEmpty+0x2c>
42001b04:	e3a0c000 	mov	ip, #0
42001b08:	e1a0100c 	mov	r1, ip
42001b0c:	e0823181 	add	r3, r2, r1, lsl #3
42001b10:	e5933004 	ldr	r3, [r3, #4]
42001b14:	e1530000 	cmp	r3, r0
42001b18:	0792c181 	ldreq	ip, [r2, r1, lsl #3]
42001b1c:	0a000002 	beq	42001b2c <pcQueueGetName+0x2c>
42001b20:	e2811001 	add	r1, r1, #1
42001b24:	e3510008 	cmp	r1, #8
42001b28:	3afffff7 	bcc	42001b0c <pcQueueGetName+0xc>
42001b2c:	e1a0000c 	mov	r0, ip
42001b30:	e12fff1e 	bx	lr

42001b34 <vQueueWaitForMessageRestricted>:
42001b34:	e92d4070 	push	{r4, r5, r6, lr}
42001b38:	e1a04000 	mov	r4, r0
42001b3c:	e1a05001 	mov	r5, r1
42001b40:	e1a06002 	mov	r6, r2
42001b44:	ebfffb93 	bl	42000998 <vPortEnterCritical>
42001b48:	e1d414d4 	ldrsb	r1, [r4, #68]	; 0x44
42001b4c:	e3a00000 	mov	r0, #0
42001b50:	e3710001 	cmn	r1, #1
42001b54:	05c40044 	strbeq	r0, [r4, #68]	; 0x44
42001b58:	e1d414d5 	ldrsb	r1, [r4, #69]	; 0x45
42001b5c:	e3710001 	cmn	r1, #1
42001b60:	05c40045 	strbeq	r0, [r4, #69]	; 0x45
42001b64:	ebfffb9b 	bl	420009d8 <vPortExitCritical>
42001b68:	e5940038 	ldr	r0, [r4, #56]	; 0x38
42001b6c:	e3500000 	cmp	r0, #0
42001b70:	1a000003 	bne	42001b84 <vQueueWaitForMessageRestricted+0x50>
42001b74:	e1a02006 	mov	r2, r6
42001b78:	e1a01005 	mov	r1, r5
42001b7c:	e2840024 	add	r0, r4, #36	; 0x24
42001b80:	eb0004ab 	bl	42002e34 <vTaskPlaceOnEventListRestricted>
42001b84:	e1a00004 	mov	r0, r4
42001b88:	e8bd4070 	pop	{r4, r5, r6, lr}
42001b8c:	eafffc7b 	b	42000d80 <prvUnlockQueue>

42001b90 <xQueueCreateSet>:
42001b90:	e3a02000 	mov	r2, #0
42001b94:	e3a01004 	mov	r1, #4
42001b98:	eafffc01 	b	42000ba4 <xQueueGenericCreate>

42001b9c <xQueueAddToSet>:
42001b9c:	e92d4070 	push	{r4, r5, r6, lr}
42001ba0:	e1a04000 	mov	r4, r0
42001ba4:	e1a05001 	mov	r5, r1
42001ba8:	ebfffb7a 	bl	42000998 <vPortEnterCritical>
42001bac:	e5940048 	ldr	r0, [r4, #72]	; 0x48
42001bb0:	e3500000 	cmp	r0, #0
42001bb4:	05940038 	ldreq	r0, [r4, #56]	; 0x38
42001bb8:	03500000 	cmpeq	r0, #0
42001bbc:	05845048 	streq	r5, [r4, #72]	; 0x48
42001bc0:	13a04000 	movne	r4, #0
42001bc4:	03a04001 	moveq	r4, #1
42001bc8:	ebfffb82 	bl	420009d8 <vPortExitCritical>
42001bcc:	e1a00004 	mov	r0, r4
42001bd0:	e8bd8070 	pop	{r4, r5, r6, pc}

42001bd4 <xQueueRemoveFromSet>:
42001bd4:	e92d4010 	push	{r4, lr}
42001bd8:	e1a04000 	mov	r4, r0
42001bdc:	e5900048 	ldr	r0, [r0, #72]	; 0x48
42001be0:	e1500001 	cmp	r0, r1
42001be4:	05940038 	ldreq	r0, [r4, #56]	; 0x38
42001be8:	03500000 	cmpeq	r0, #0
42001bec:	13a00000 	movne	r0, #0
42001bf0:	18bd8010 	popne	{r4, pc}
42001bf4:	ebfffb67 	bl	42000998 <vPortEnterCritical>
42001bf8:	e3a00000 	mov	r0, #0
42001bfc:	e5840048 	str	r0, [r4, #72]	; 0x48
42001c00:	ebfffb74 	bl	420009d8 <vPortExitCritical>
42001c04:	e3a00001 	mov	r0, #1
42001c08:	e8bd8010 	pop	{r4, pc}

42001c0c <xQueueSelectFromSet>:
42001c0c:	e92d4008 	push	{r3, lr}
42001c10:	e3a03000 	mov	r3, #0
42001c14:	e1a02001 	mov	r2, r1
42001c18:	e1a0100d 	mov	r1, sp
42001c1c:	e58d3000 	str	r3, [sp]
42001c20:	ebfffe45 	bl	4200153c <xQueueReceive>
42001c24:	e59d0000 	ldr	r0, [sp]
42001c28:	e8bd8008 	pop	{r3, pc}

42001c2c <xQueueSelectFromSetFromISR>:
42001c2c:	e92d4008 	push	{r3, lr}
42001c30:	e3a01000 	mov	r1, #0
42001c34:	e1a02001 	mov	r2, r1
42001c38:	e58d1000 	str	r1, [sp]
42001c3c:	e1a0100d 	mov	r1, sp
42001c40:	ebfffefb 	bl	42001834 <xQueueReceiveFromISR>
42001c44:	e59d0000 	ldr	r0, [sp]
42001c48:	e8bd8008 	pop	{r3, pc}

42001c4c <prvIsQueueEmpty>:
42001c4c:	e92d4010 	push	{r4, lr}
42001c50:	e1a04000 	mov	r4, r0
42001c54:	ebfffb4f 	bl	42000998 <vPortEnterCritical>
42001c58:	e5940038 	ldr	r0, [r4, #56]	; 0x38
42001c5c:	e3500000 	cmp	r0, #0
42001c60:	03a04001 	moveq	r4, #1
42001c64:	13a04000 	movne	r4, #0
42001c68:	ebfffb5a 	bl	420009d8 <vPortExitCritical>
42001c6c:	e1a00004 	mov	r0, r4
42001c70:	e8bd8010 	pop	{r4, pc}
42001c74:	42000d78 	andmi	r0, r0, #120, 26	; 0x1e00
42001c78:	4201ced8 	andmi	ip, r1, #216, 28	; 0xd80

42001c7c <prvAddNewTaskToReadyList>:
42001c7c:	e92d41f0 	push	{r4, r5, r6, r7, r8, lr}
42001c80:	e1a05000 	mov	r5, r0
42001c84:	ebfffb43 	bl	42000998 <vPortEnterCritical>
42001c88:	e59f64c0 	ldr	r6, [pc, #1216]	; 42002150 <xTaskResumeAll+0x100>
42001c8c:	e5960008 	ldr	r0, [r6, #8]
42001c90:	e2800001 	add	r0, r0, #1
42001c94:	e5860008 	str	r0, [r6, #8]
42001c98:	e5960000 	ldr	r0, [r6]
42001c9c:	e59f74b0 	ldr	r7, [pc, #1200]	; 42002154 <xTaskResumeAll+0x104>
42001ca0:	e3500000 	cmp	r0, #0
42001ca4:	0a000003 	beq	42001cb8 <prvAddNewTaskToReadyList+0x3c>
42001ca8:	e5960014 	ldr	r0, [r6, #20]
42001cac:	e3500000 	cmp	r0, #0
42001cb0:	0a00001a 	beq	42001d20 <prvAddNewTaskToReadyList+0xa4>
42001cb4:	ea00001e 	b	42001d34 <prvAddNewTaskToReadyList+0xb8>
42001cb8:	e5865000 	str	r5, [r6]
42001cbc:	e5960008 	ldr	r0, [r6, #8]
42001cc0:	e3500001 	cmp	r0, #1
42001cc4:	03a04000 	moveq	r4, #0
42001cc8:	1a000019 	bne	42001d34 <prvAddNewTaskToReadyList+0xb8>
42001ccc:	e0840104 	add	r0, r4, r4, lsl #2
42001cd0:	e0870100 	add	r0, r7, r0, lsl #2
42001cd4:	ebfff99c 	bl	4200034c <vListInitialise>
42001cd8:	e2844001 	add	r4, r4, #1
42001cdc:	e3540007 	cmp	r4, #7
42001ce0:	3afffff9 	bcc	42001ccc <prvAddNewTaskToReadyList+0x50>
42001ce4:	e59f046c 	ldr	r0, [pc, #1132]	; 42002158 <xTaskResumeAll+0x108>
42001ce8:	ebfff997 	bl	4200034c <vListInitialise>
42001cec:	e59f0468 	ldr	r0, [pc, #1128]	; 4200215c <xTaskResumeAll+0x10c>
42001cf0:	ebfff995 	bl	4200034c <vListInitialise>
42001cf4:	e59f0464 	ldr	r0, [pc, #1124]	; 42002160 <xTaskResumeAll+0x110>
42001cf8:	ebfff993 	bl	4200034c <vListInitialise>
42001cfc:	e59f0460 	ldr	r0, [pc, #1120]	; 42002164 <xTaskResumeAll+0x114>
42001d00:	ebfff991 	bl	4200034c <vListInitialise>
42001d04:	e59f045c 	ldr	r0, [pc, #1116]	; 42002168 <xTaskResumeAll+0x118>
42001d08:	ebfff98f 	bl	4200034c <vListInitialise>
42001d0c:	e59f0444 	ldr	r0, [pc, #1092]	; 42002158 <xTaskResumeAll+0x108>
42001d10:	e586003c 	str	r0, [r6, #60]	; 0x3c
42001d14:	e2800014 	add	r0, r0, #20
42001d18:	e5860040 	str	r0, [r6, #64]	; 0x40
42001d1c:	ea000004 	b	42001d34 <prvAddNewTaskToReadyList+0xb8>
42001d20:	e5960000 	ldr	r0, [r6]
42001d24:	e595102c 	ldr	r1, [r5, #44]	; 0x2c
42001d28:	e590002c 	ldr	r0, [r0, #44]	; 0x2c
42001d2c:	e1500001 	cmp	r0, r1
42001d30:	95865000 	strls	r5, [r6]
42001d34:	e3a01001 	mov	r1, #1
42001d38:	e5960024 	ldr	r0, [r6, #36]	; 0x24
42001d3c:	e2800001 	add	r0, r0, #1
42001d40:	e5860024 	str	r0, [r6, #36]	; 0x24
42001d44:	e5850040 	str	r0, [r5, #64]	; 0x40
42001d48:	e595002c 	ldr	r0, [r5, #44]	; 0x2c
42001d4c:	e5962010 	ldr	r2, [r6, #16]
42001d50:	e1821011 	orr	r1, r2, r1, lsl r0
42001d54:	e5861010 	str	r1, [r6, #16]
42001d58:	e0800100 	add	r0, r0, r0, lsl #2
42001d5c:	e2851004 	add	r1, r5, #4
42001d60:	e0870100 	add	r0, r7, r0, lsl #2
42001d64:	ebfff984 	bl	4200037c <vListInsertEnd>
42001d68:	ebfffb1a 	bl	420009d8 <vPortExitCritical>
42001d6c:	e5960014 	ldr	r0, [r6, #20]
42001d70:	e3500000 	cmp	r0, #0
42001d74:	08bd81f0 	popeq	{r4, r5, r6, r7, r8, pc}
42001d78:	e5960000 	ldr	r0, [r6]
42001d7c:	e595102c 	ldr	r1, [r5, #44]	; 0x2c
42001d80:	e590002c 	ldr	r0, [r0, #44]	; 0x2c
42001d84:	e1510000 	cmp	r1, r0
42001d88:	8f000000 	svchi	0x00000000
42001d8c:	e8bd81f0 	pop	{r4, r5, r6, r7, r8, pc}

42001d90 <xTaskCreate>:
42001d90:	e92d43f0 	push	{r4, r5, r6, r7, r8, r9, lr}
42001d94:	e1a07000 	mov	r7, r0
42001d98:	e1a08001 	mov	r8, r1
42001d9c:	e1a06002 	mov	r6, r2
42001da0:	e1a09003 	mov	r9, r3
42001da4:	e1a00102 	lsl	r0, r2, #2
42001da8:	ed2d8b02 	vpush	{d8}
42001dac:	e24dd014 	sub	sp, sp, #20
42001db0:	eddd8a0e 	vldr	s17, [sp, #56]	; 0x38
42001db4:	ed9d8a0f 	vldr	s16, [sp, #60]	; 0x3c
42001db8:	ebfff8ff 	bl	420001bc <_maybe_terminate_alloc>
42001dbc:	e1b05000 	movs	r5, r0
42001dc0:	0a000016 	beq	42001e20 <xTaskCreate+0x90>
42001dc4:	e3a0005c 	mov	r0, #92	; 0x5c
42001dc8:	ebfff8fb 	bl	420001bc <_maybe_terminate_alloc>
42001dcc:	e1b04000 	movs	r4, r0
42001dd0:	15845030 	strne	r5, [r4, #48]	; 0x30
42001dd4:	0a00000f 	beq	42001e18 <xTaskCreate+0x88>
42001dd8:	edcd8a00 	vstr	s17, [sp]
42001ddc:	ed8d8a01 	vstr	s16, [sp, #4]
42001de0:	e3a00000 	mov	r0, #0
42001de4:	e1a03009 	mov	r3, r9
42001de8:	e58d000c 	str	r0, [sp, #12]
42001dec:	e1a02006 	mov	r2, r6
42001df0:	e1a01008 	mov	r1, r8
42001df4:	e1a00007 	mov	r0, r7
42001df8:	e58d4008 	str	r4, [sp, #8]
42001dfc:	eb00071e 	bl	42003a7c <prvInitialiseNewTask>
42001e00:	e1a00004 	mov	r0, r4
42001e04:	ebffff9c 	bl	42001c7c <prvAddNewTaskToReadyList>
42001e08:	e3a00001 	mov	r0, #1
42001e0c:	e28dd014 	add	sp, sp, #20
42001e10:	ecbd8b02 	vpop	{d8}
42001e14:	e8bd83f0 	pop	{r4, r5, r6, r7, r8, r9, pc}
42001e18:	e1a00005 	mov	r0, r5
42001e1c:	ebfff92c 	bl	420002d4 <vPortFree>
42001e20:	e3e00000 	mvn	r0, #0
42001e24:	eafffff8 	b	42001e0c <xTaskCreate+0x7c>

42001e28 <vTaskDelete>:
42001e28:	e92d4070 	push	{r4, r5, r6, lr}
42001e2c:	e1a04000 	mov	r4, r0
42001e30:	ebfffad8 	bl	42000998 <vPortEnterCritical>
42001e34:	e59f5314 	ldr	r5, [pc, #788]	; 42002150 <xTaskResumeAll+0x100>
42001e38:	e3540000 	cmp	r4, #0
42001e3c:	05954000 	ldreq	r4, [r5]
42001e40:	e2840004 	add	r0, r4, #4
42001e44:	ebfff96d 	bl	42000400 <uxListRemove>
42001e48:	e3500000 	cmp	r0, #0
42001e4c:	1a00000a 	bne	42001e7c <vTaskDelete+0x54>
42001e50:	e594002c 	ldr	r0, [r4, #44]	; 0x2c
42001e54:	e59f22f8 	ldr	r2, [pc, #760]	; 42002154 <xTaskResumeAll+0x104>
42001e58:	e0801100 	add	r1, r0, r0, lsl #2
42001e5c:	e7921101 	ldr	r1, [r2, r1, lsl #2]
42001e60:	e3510000 	cmp	r1, #0
42001e64:	1a000004 	bne	42001e7c <vTaskDelete+0x54>
42001e68:	e3a01001 	mov	r1, #1
42001e6c:	e1a00011 	lsl	r0, r1, r0
42001e70:	e5951010 	ldr	r1, [r5, #16]
42001e74:	e1c10000 	bic	r0, r1, r0
42001e78:	e5850010 	str	r0, [r5, #16]
42001e7c:	e5940028 	ldr	r0, [r4, #40]	; 0x28
42001e80:	e3500000 	cmp	r0, #0
42001e84:	12840018 	addne	r0, r4, #24
42001e88:	1bfff95c 	blne	42000400 <uxListRemove>
42001e8c:	e5950024 	ldr	r0, [r5, #36]	; 0x24
42001e90:	e2800001 	add	r0, r0, #1
42001e94:	e5850024 	str	r0, [r5, #36]	; 0x24
42001e98:	e5950000 	ldr	r0, [r5]
42001e9c:	e1540000 	cmp	r4, r0
42001ea0:	1a000006 	bne	42001ec0 <vTaskDelete+0x98>
42001ea4:	e2841004 	add	r1, r4, #4
42001ea8:	e59f02b4 	ldr	r0, [pc, #692]	; 42002164 <xTaskResumeAll+0x114>
42001eac:	ebfff932 	bl	4200037c <vListInsertEnd>
42001eb0:	e5950004 	ldr	r0, [r5, #4]
42001eb4:	e2800001 	add	r0, r0, #1
42001eb8:	e5850004 	str	r0, [r5, #4]
42001ebc:	ea000005 	b	42001ed8 <vTaskDelete+0xb0>
42001ec0:	e5950008 	ldr	r0, [r5, #8]
42001ec4:	e2400001 	sub	r0, r0, #1
42001ec8:	e5850008 	str	r0, [r5, #8]
42001ecc:	e1a00004 	mov	r0, r4
42001ed0:	eb000729 	bl	42003b7c <prvDeleteTCB>
42001ed4:	eb00071d 	bl	42003b50 <prvResetNextTaskUnblockTime>
42001ed8:	ebfffabe 	bl	420009d8 <vPortExitCritical>
42001edc:	e5950014 	ldr	r0, [r5, #20]
42001ee0:	e3500000 	cmp	r0, #0
42001ee4:	08bd8070 	popeq	{r4, r5, r6, pc}
42001ee8:	e5950000 	ldr	r0, [r5]
42001eec:	e1540000 	cmp	r4, r0
42001ef0:	18bd8070 	popne	{r4, r5, r6, pc}
42001ef4:	e5950030 	ldr	r0, [r5, #48]	; 0x30
42001ef8:	e3500000 	cmp	r0, #0
42001efc:	130014a5 	movwne	r1, #1189	; 0x4a5
42001f00:	128f0f99 	addne	r0, pc, #612	; 0x264
42001f04:	1bfff98e 	blne	42000544 <vAssertCalled>
42001f08:	ef000000 	svc	0x00000000
42001f0c:	e8bd8070 	pop	{r4, r5, r6, pc}

42001f10 <xTaskIncrementTick>:
42001f10:	e92d41f0 	push	{r4, r5, r6, r7, r8, lr}
42001f14:	e3a06000 	mov	r6, #0
42001f18:	e59f7230 	ldr	r7, [pc, #560]	; 42002150 <xTaskResumeAll+0x100>
42001f1c:	e5970030 	ldr	r0, [r7, #48]	; 0x30
42001f20:	e3500000 	cmp	r0, #0
42001f24:	15970018 	ldrne	r0, [r7, #24]
42001f28:	12800001 	addne	r0, r0, #1
42001f2c:	15870018 	strne	r0, [r7, #24]
42001f30:	1a000040 	bne	42002038 <xTaskIncrementTick+0x128>
42001f34:	e597000c 	ldr	r0, [r7, #12]
42001f38:	e2905001 	adds	r5, r0, #1
42001f3c:	e587500c 	str	r5, [r7, #12]
42001f40:	1a00000d 	bne	42001f7c <xTaskIncrementTick+0x6c>
42001f44:	e597003c 	ldr	r0, [r7, #60]	; 0x3c
42001f48:	e5900000 	ldr	r0, [r0]
42001f4c:	e3500000 	cmp	r0, #0
42001f50:	13001a33 	movwne	r1, #2611	; 0xa33
42001f54:	128f0e21 	addne	r0, pc, #528	; 0x210
42001f58:	1bfff979 	blne	42000544 <vAssertCalled>
42001f5c:	e597003c 	ldr	r0, [r7, #60]	; 0x3c
42001f60:	e5971040 	ldr	r1, [r7, #64]	; 0x40
42001f64:	e587103c 	str	r1, [r7, #60]	; 0x3c
42001f68:	e5870040 	str	r0, [r7, #64]	; 0x40
42001f6c:	e5970020 	ldr	r0, [r7, #32]
42001f70:	e2800001 	add	r0, r0, #1
42001f74:	e5870020 	str	r0, [r7, #32]
42001f78:	eb0006f4 	bl	42003b50 <prvResetNextTaskUnblockTime>
42001f7c:	e5970028 	ldr	r0, [r7, #40]	; 0x28
42001f80:	e59f81cc 	ldr	r8, [pc, #460]	; 42002154 <xTaskResumeAll+0x104>
42001f84:	e1500005 	cmp	r0, r5
42001f88:	8a00000b 	bhi	42001fbc <xTaskIncrementTick+0xac>
42001f8c:	e597003c 	ldr	r0, [r7, #60]	; 0x3c
42001f90:	e5900000 	ldr	r0, [r0]
42001f94:	e3500000 	cmp	r0, #0
42001f98:	03e00000 	mvneq	r0, #0
42001f9c:	0a000005 	beq	42001fb8 <xTaskIncrementTick+0xa8>
42001fa0:	e597003c 	ldr	r0, [r7, #60]	; 0x3c
42001fa4:	e590000c 	ldr	r0, [r0, #12]
42001fa8:	e590400c 	ldr	r4, [r0, #12]
42001fac:	e5940004 	ldr	r0, [r4, #4]
42001fb0:	e1500005 	cmp	r0, r5
42001fb4:	9a00000a 	bls	42001fe4 <xTaskIncrementTick+0xd4>
42001fb8:	e5870028 	str	r0, [r7, #40]	; 0x28
42001fbc:	e5970000 	ldr	r0, [r7]
42001fc0:	e590002c 	ldr	r0, [r0, #44]	; 0x2c
42001fc4:	e0800100 	add	r0, r0, r0, lsl #2
42001fc8:	e7980100 	ldr	r0, [r8, r0, lsl #2]
42001fcc:	e3500001 	cmp	r0, #1
42001fd0:	e5970018 	ldr	r0, [r7, #24]
42001fd4:	83a06001 	movhi	r6, #1
42001fd8:	e3500000 	cmp	r0, #0
42001fdc:	1a000016 	bne	4200203c <xTaskIncrementTick+0x12c>
42001fe0:	ea000014 	b	42002038 <xTaskIncrementTick+0x128>
42001fe4:	e2840004 	add	r0, r4, #4
42001fe8:	ebfff904 	bl	42000400 <uxListRemove>
42001fec:	e5940028 	ldr	r0, [r4, #40]	; 0x28
42001ff0:	e3500000 	cmp	r0, #0
42001ff4:	12840018 	addne	r0, r4, #24
42001ff8:	1bfff900 	blne	42000400 <uxListRemove>
42001ffc:	e594002c 	ldr	r0, [r4, #44]	; 0x2c
42002000:	e3a01001 	mov	r1, #1
42002004:	e5972010 	ldr	r2, [r7, #16]
42002008:	e1821011 	orr	r1, r2, r1, lsl r0
4200200c:	e5871010 	str	r1, [r7, #16]
42002010:	e0800100 	add	r0, r0, r0, lsl #2
42002014:	e2841004 	add	r1, r4, #4
42002018:	e0880100 	add	r0, r8, r0, lsl #2
4200201c:	ebfff8d6 	bl	4200037c <vListInsertEnd>
42002020:	e594002c 	ldr	r0, [r4, #44]	; 0x2c
42002024:	e5971000 	ldr	r1, [r7]
42002028:	e591102c 	ldr	r1, [r1, #44]	; 0x2c
4200202c:	e1500001 	cmp	r0, r1
42002030:	23a06001 	movcs	r6, #1
42002034:	eaffffd4 	b	42001f8c <xTaskIncrementTick+0x7c>
42002038:	ebfff9bf 	bl	4200073c <vApplicationTickHook>
4200203c:	e597001c 	ldr	r0, [r7, #28]
42002040:	e3500000 	cmp	r0, #0
42002044:	13a06001 	movne	r6, #1
42002048:	e1a00006 	mov	r0, r6
4200204c:	e8bd81f0 	pop	{r4, r5, r6, r7, r8, pc}

42002050 <xTaskResumeAll>:
42002050:	e92d47f0 	push	{r4, r5, r6, r7, r8, r9, sl, lr}
42002054:	e3a04000 	mov	r4, #0
42002058:	e59f60f0 	ldr	r6, [pc, #240]	; 42002150 <xTaskResumeAll+0x100>
4200205c:	e1a05004 	mov	r5, r4
42002060:	e5960030 	ldr	r0, [r6, #48]	; 0x30
42002064:	e3500000 	cmp	r0, #0
42002068:	03a01d21 	moveq	r1, #2112	; 0x840
4200206c:	028f00f8 	addeq	r0, pc, #248	; 0xf8
42002070:	0bfff933 	bleq	42000544 <vAssertCalled>
42002074:	ebfffa47 	bl	42000998 <vPortEnterCritical>
42002078:	e5960030 	ldr	r0, [r6, #48]	; 0x30
4200207c:	e2400001 	sub	r0, r0, #1
42002080:	e5860030 	str	r0, [r6, #48]	; 0x30
42002084:	e5960030 	ldr	r0, [r6, #48]	; 0x30
42002088:	e3500000 	cmp	r0, #0
4200208c:	1a00002c 	bne	42002144 <xTaskResumeAll+0xf4>
42002090:	e5960008 	ldr	r0, [r6, #8]
42002094:	e59f80c4 	ldr	r8, [pc, #196]	; 42002160 <xTaskResumeAll+0x110>
42002098:	e3a07001 	mov	r7, #1
4200209c:	e3500000 	cmp	r0, #0
420020a0:	124890b4 	subne	r9, r8, #180	; 0xb4
420020a4:	0a000026 	beq	42002144 <xTaskResumeAll+0xf4>
420020a8:	e5980000 	ldr	r0, [r8]
420020ac:	e3500000 	cmp	r0, #0
420020b0:	0a000013 	beq	42002104 <xTaskResumeAll+0xb4>
420020b4:	e598000c 	ldr	r0, [r8, #12]
420020b8:	e590400c 	ldr	r4, [r0, #12]
420020bc:	e2840018 	add	r0, r4, #24
420020c0:	ebfff8ce 	bl	42000400 <uxListRemove>
420020c4:	e2840004 	add	r0, r4, #4
420020c8:	ebfff8cc 	bl	42000400 <uxListRemove>
420020cc:	e594002c 	ldr	r0, [r4, #44]	; 0x2c
420020d0:	e5962010 	ldr	r2, [r6, #16]
420020d4:	e1821017 	orr	r1, r2, r7, lsl r0
420020d8:	e5861010 	str	r1, [r6, #16]
420020dc:	e0800100 	add	r0, r0, r0, lsl #2
420020e0:	e2841004 	add	r1, r4, #4
420020e4:	e0890100 	add	r0, r9, r0, lsl #2
420020e8:	ebfff8a3 	bl	4200037c <vListInsertEnd>
420020ec:	e594002c 	ldr	r0, [r4, #44]	; 0x2c
420020f0:	e5961000 	ldr	r1, [r6]
420020f4:	e591102c 	ldr	r1, [r1, #44]	; 0x2c
420020f8:	e1500001 	cmp	r0, r1
420020fc:	2586701c 	strcs	r7, [r6, #28]
42002100:	eaffffe8 	b	420020a8 <xTaskResumeAll+0x58>
42002104:	e3540000 	cmp	r4, #0
42002108:	1b000690 	blne	42003b50 <prvResetNextTaskUnblockTime>
4200210c:	e5964018 	ldr	r4, [r6, #24]
42002110:	e3540000 	cmp	r4, #0
42002114:	0a000006 	beq	42002134 <xTaskResumeAll+0xe4>
42002118:	ebffff7c 	bl	42001f10 <xTaskIncrementTick>
4200211c:	e3500000 	cmp	r0, #0
42002120:	1586701c 	strne	r7, [r6, #28]
42002124:	e2544001 	subs	r4, r4, #1
42002128:	03a00000 	moveq	r0, #0
4200212c:	05860018 	streq	r0, [r6, #24]
42002130:	1afffff8 	bne	42002118 <xTaskResumeAll+0xc8>
42002134:	e596001c 	ldr	r0, [r6, #28]
42002138:	e3500000 	cmp	r0, #0
4200213c:	13a05001 	movne	r5, #1
42002140:	1f000000 	svcne	0x00000000
42002144:	ebfffa23 	bl	420009d8 <vPortExitCritical>
42002148:	e1a00005 	mov	r0, r5
4200214c:	e8bd87f0 	pop	{r4, r5, r6, r7, r8, r9, sl, pc}
42002150:	42005a04 	andmi	r5, r0, #4, 20	; 0x4000
42002154:	4201cf18 	andmi	ip, r1, #24, 30	; 0x60
42002158:	4201cfa4 	andmi	ip, r1, #164, 30	; 0x290
4200215c:	4201cfb8 	andmi	ip, r1, #184, 30	; 0x2e0
42002160:	4201cfcc 	andmi	ip, r1, #204, 30	; 0x330
42002164:	4201cfe0 	andmi	ip, r1, #224, 30	; 0x380
42002168:	4201cff4 	andmi	ip, r1, #244, 30	; 0x3d0
4200216c:	6b736174 	blvs	43cda744 <Image$$ARM_LIB_HEAP$$ZI$$Limit+0xc5a744>
42002170:	00632e73 	rsbeq	r2, r3, r3, ror lr

42002174 <prvAddCurrentTaskToDelayedList>:
42002174:	e92d41f0 	push	{r4, r5, r6, r7, r8, lr}
42002178:	e1a04000 	mov	r4, r0
4200217c:	e51f7034 	ldr	r7, [pc, #-52]	; 42002150 <xTaskResumeAll+0x100>
42002180:	e1a06001 	mov	r6, r1
42002184:	e597500c 	ldr	r5, [r7, #12]
42002188:	e3a00000 	mov	r0, #0
4200218c:	e5971000 	ldr	r1, [r7]
42002190:	e5c10059 	strb	r0, [r1, #89]	; 0x59
42002194:	e5970000 	ldr	r0, [r7]
42002198:	e2800004 	add	r0, r0, #4
4200219c:	ebfff897 	bl	42000400 <uxListRemove>
420021a0:	e3500000 	cmp	r0, #0
420021a4:	1a000006 	bne	420021c4 <prvAddCurrentTaskToDelayedList+0x50>
420021a8:	e5970000 	ldr	r0, [r7]
420021ac:	e3a01001 	mov	r1, #1
420021b0:	e590002c 	ldr	r0, [r0, #44]	; 0x2c
420021b4:	e1a00011 	lsl	r0, r1, r0
420021b8:	e5971010 	ldr	r1, [r7, #16]
420021bc:	e1c10000 	bic	r0, r1, r0
420021c0:	e5870010 	str	r0, [r7, #16]
420021c4:	e3740001 	cmn	r4, #1
420021c8:	1a000006 	bne	420021e8 <prvAddCurrentTaskToDelayedList+0x74>
420021cc:	e3560000 	cmp	r6, #0
420021d0:	0a000004 	beq	420021e8 <prvAddCurrentTaskToDelayedList+0x74>
420021d4:	e5970000 	ldr	r0, [r7]
420021d8:	e8bd41f0 	pop	{r4, r5, r6, r7, r8, lr}
420021dc:	e2801004 	add	r1, r0, #4
420021e0:	e51f0080 	ldr	r0, [pc, #-128]	; 42002168 <xTaskResumeAll+0x118>
420021e4:	eafff864 	b	4200037c <vListInsertEnd>
420021e8:	e5970000 	ldr	r0, [r7]
420021ec:	e0844005 	add	r4, r4, r5
420021f0:	e1540005 	cmp	r4, r5
420021f4:	e5804004 	str	r4, [r0, #4]
420021f8:	e5970000 	ldr	r0, [r7]
420021fc:	e2801004 	add	r1, r0, #4
42002200:	2a000002 	bcs	42002210 <prvAddCurrentTaskToDelayedList+0x9c>
42002204:	e5970040 	ldr	r0, [r7, #64]	; 0x40
42002208:	e8bd41f0 	pop	{r4, r5, r6, r7, r8, lr}
4200220c:	eafff866 	b	420003ac <vListInsert>
42002210:	e597003c 	ldr	r0, [r7, #60]	; 0x3c
42002214:	ebfff864 	bl	420003ac <vListInsert>
42002218:	e5970028 	ldr	r0, [r7, #40]	; 0x28
4200221c:	e1500004 	cmp	r0, r4
42002220:	85874028 	strhi	r4, [r7, #40]	; 0x28
42002224:	e8bd81f0 	pop	{r4, r5, r6, r7, r8, pc}

42002228 <vTaskSuspendAll>:
42002228:	e51f00e0 	ldr	r0, [pc, #-224]	; 42002150 <xTaskResumeAll+0x100>
4200222c:	e5901030 	ldr	r1, [r0, #48]	; 0x30
42002230:	e2811001 	add	r1, r1, #1
42002234:	e5801030 	str	r1, [r0, #48]	; 0x30
42002238:	e12fff1e 	bx	lr

4200223c <vTaskDelayUntil>:
4200223c:	e92d41f0 	push	{r4, r5, r6, r7, r8, lr}
42002240:	e1b05000 	movs	r5, r0
42002244:	e1a06001 	mov	r6, r1
42002248:	e3a04000 	mov	r4, #0
4200224c:	030014b9 	movweq	r1, #1209	; 0x4b9
42002250:	024f00ec 	subeq	r0, pc, #236	; 0xec
42002254:	0bfff8ba 	bleq	42000544 <vAssertCalled>
42002258:	e3560000 	cmp	r6, #0
4200225c:	030014ba 	movweq	r1, #1210	; 0x4ba
42002260:	024f00fc 	subeq	r0, pc, #252	; 0xfc
42002264:	0bfff8b6 	bleq	42000544 <vAssertCalled>
42002268:	e51f7120 	ldr	r7, [pc, #-288]	; 42002150 <xTaskResumeAll+0x100>
4200226c:	e5970030 	ldr	r0, [r7, #48]	; 0x30
42002270:	e3500000 	cmp	r0, #0
42002274:	130014bb 	movwne	r1, #1211	; 0x4bb
42002278:	124f0f45 	subne	r0, pc, #276	; 0x114
4200227c:	1bfff8b0 	blne	42000544 <vAssertCalled>
42002280:	ebffffe8 	bl	42002228 <vTaskSuspendAll>
42002284:	e597100c 	ldr	r1, [r7, #12]
42002288:	e5952000 	ldr	r2, [r5]
4200228c:	e1520001 	cmp	r2, r1
42002290:	e0820006 	add	r0, r2, r6
42002294:	9a000002 	bls	420022a4 <vTaskDelayUntil+0x68>
42002298:	e1520000 	cmp	r2, r0
4200229c:	9a000005 	bls	420022b8 <vTaskDelayUntil+0x7c>
420022a0:	ea000001 	b	420022ac <vTaskDelayUntil+0x70>
420022a4:	e1520000 	cmp	r2, r0
420022a8:	8a000001 	bhi	420022b4 <vTaskDelayUntil+0x78>
420022ac:	e1500001 	cmp	r0, r1
420022b0:	9a000000 	bls	420022b8 <vTaskDelayUntil+0x7c>
420022b4:	e3a04001 	mov	r4, #1
420022b8:	e3540000 	cmp	r4, #0
420022bc:	e5850000 	str	r0, [r5]
420022c0:	10400001 	subne	r0, r0, r1
420022c4:	13a01000 	movne	r1, #0
420022c8:	1bffffa9 	blne	42002174 <prvAddCurrentTaskToDelayedList>
420022cc:	ebffff5f 	bl	42002050 <xTaskResumeAll>
420022d0:	e3500000 	cmp	r0, #0
420022d4:	0f000000 	svceq	0x00000000
420022d8:	e8bd81f0 	pop	{r4, r5, r6, r7, r8, pc}

420022dc <vTaskDelay>:
420022dc:	e92d4010 	push	{r4, lr}
420022e0:	e1b04000 	movs	r4, r0
420022e4:	0a00000c 	beq	4200231c <vTaskDelay+0x40>
420022e8:	e51f01a0 	ldr	r0, [pc, #-416]	; 42002150 <xTaskResumeAll+0x100>
420022ec:	e5900030 	ldr	r0, [r0, #48]	; 0x30
420022f0:	e3500000 	cmp	r0, #0
420022f4:	1300150f 	movwne	r1, #1295	; 0x50f
420022f8:	124f0f65 	subne	r0, pc, #404	; 0x194
420022fc:	1bfff890 	blne	42000544 <vAssertCalled>
42002300:	ebffffc8 	bl	42002228 <vTaskSuspendAll>
42002304:	e3a01000 	mov	r1, #0
42002308:	e1a00004 	mov	r0, r4
4200230c:	ebffff98 	bl	42002174 <prvAddCurrentTaskToDelayedList>
42002310:	ebffff4e 	bl	42002050 <xTaskResumeAll>
42002314:	e3500000 	cmp	r0, #0
42002318:	18bd8010 	popne	{r4, pc}
4200231c:	ef000000 	svc	0x00000000
42002320:	e8bd8010 	pop	{r4, pc}

42002324 <eTaskGetState>:
42002324:	e92d4070 	push	{r4, r5, r6, lr}
42002328:	e1b05000 	movs	r5, r0
4200232c:	0300153b 	movweq	r1, #1339	; 0x53b
42002330:	024f0f73 	subeq	r0, pc, #460	; 0x1cc
42002334:	0bfff882 	bleq	42000544 <vAssertCalled>
42002338:	e51f61f0 	ldr	r6, [pc, #-496]	; 42002150 <xTaskResumeAll+0x100>
4200233c:	e5960000 	ldr	r0, [r6]
42002340:	e1550000 	cmp	r5, r0
42002344:	03a00000 	moveq	r0, #0
42002348:	08bd8070 	popeq	{r4, r5, r6, pc}
4200234c:	ebfff991 	bl	42000998 <vPortEnterCritical>
42002350:	e5954014 	ldr	r4, [r5, #20]
42002354:	ebfff99f 	bl	420009d8 <vPortExitCritical>
42002358:	e596003c 	ldr	r0, [r6, #60]	; 0x3c
4200235c:	e1540000 	cmp	r4, r0
42002360:	15960040 	ldrne	r0, [r6, #64]	; 0x40
42002364:	11540000 	cmpne	r4, r0
42002368:	1a000001 	bne	42002374 <eTaskGetState+0x50>
4200236c:	e3a00002 	mov	r0, #2
42002370:	e8bd8070 	pop	{r4, r5, r6, pc}
42002374:	e51f0214 	ldr	r0, [pc, #-532]	; 42002168 <xTaskResumeAll+0x118>
42002378:	e1540000 	cmp	r4, r0
4200237c:	1a000004 	bne	42002394 <eTaskGetState+0x70>
42002380:	e5950028 	ldr	r0, [r5, #40]	; 0x28
42002384:	e3500000 	cmp	r0, #0
42002388:	03a00003 	moveq	r0, #3
4200238c:	08bd8070 	popeq	{r4, r5, r6, pc}
42002390:	eafffff5 	b	4200236c <eTaskGetState+0x48>
42002394:	e51f0238 	ldr	r0, [pc, #-568]	; 42002164 <xTaskResumeAll+0x114>
42002398:	e1540000 	cmp	r4, r0
4200239c:	13540000 	cmpne	r4, #0
420023a0:	03a00004 	moveq	r0, #4
420023a4:	13a00001 	movne	r0, #1
420023a8:	e8bd8070 	pop	{r4, r5, r6, pc}

420023ac <uxTaskPriorityGet>:
420023ac:	e92d4010 	push	{r4, lr}
420023b0:	e1a04000 	mov	r4, r0
420023b4:	ebfff977 	bl	42000998 <vPortEnterCritical>
420023b8:	e3540000 	cmp	r4, #0
420023bc:	051f0274 	ldreq	r0, [pc, #-628]	; 42002150 <xTaskResumeAll+0x100>
420023c0:	05904000 	ldreq	r4, [r0]
420023c4:	e594402c 	ldr	r4, [r4, #44]	; 0x2c
420023c8:	ebfff982 	bl	420009d8 <vPortExitCritical>
420023cc:	e1a00004 	mov	r0, r4
420023d0:	e8bd8010 	pop	{r4, pc}

420023d4 <uxTaskPriorityGetFromISR>:
420023d4:	e92d4010 	push	{r4, lr}
420023d8:	e1a04000 	mov	r4, r0
420023dc:	ebfff9bb 	bl	42000ad0 <vPortValidateInterruptPriority>
420023e0:	ebfff911 	bl	4200082c <ulPortSetInterruptMask>
420023e4:	e3540000 	cmp	r4, #0
420023e8:	051f12a0 	ldreq	r1, [pc, #-672]	; 42002150 <xTaskResumeAll+0x100>
420023ec:	05914000 	ldreq	r4, [r1]
420023f0:	e594402c 	ldr	r4, [r4, #44]	; 0x2c
420023f4:	ebfff9ad 	bl	42000ab0 <vPortClearInterruptMask>
420023f8:	e1a00004 	mov	r0, r4
420023fc:	e8bd8010 	pop	{r4, pc}

42002400 <vTaskPrioritySet>:
42002400:	e92d41f0 	push	{r4, r5, r6, r7, r8, lr}
42002404:	e3510007 	cmp	r1, #7
42002408:	e1a04000 	mov	r4, r0
4200240c:	e1a05001 	mov	r5, r1
42002410:	e3a06000 	mov	r6, #0
42002414:	3a000003 	bcc	42002428 <vTaskPrioritySet+0x28>
42002418:	e3a01d17 	mov	r1, #1472	; 0x5c0
4200241c:	e24f0fae 	sub	r0, pc, #696	; 0x2b8
42002420:	ebfff847 	bl	42000544 <vAssertCalled>
42002424:	e3a05006 	mov	r5, #6
42002428:	ebfff95a 	bl	42000998 <vPortEnterCritical>
4200242c:	e51f82e4 	ldr	r8, [pc, #-740]	; 42002150 <xTaskResumeAll+0x100>
42002430:	e3540000 	cmp	r4, #0
42002434:	05984000 	ldreq	r4, [r8]
42002438:	e5940048 	ldr	r0, [r4, #72]	; 0x48
4200243c:	e1550000 	cmp	r5, r0
42002440:	15981000 	ldrne	r1, [r8]
42002444:	0a00002a 	beq	420024f4 <vTaskPrioritySet+0xf4>
42002448:	9a000006 	bls	42002468 <vTaskPrioritySet+0x68>
4200244c:	e1540001 	cmp	r4, r1
42002450:	0a000007 	beq	42002474 <vTaskPrioritySet+0x74>
42002454:	e5981000 	ldr	r1, [r8]
42002458:	e591102c 	ldr	r1, [r1, #44]	; 0x2c
4200245c:	e1510005 	cmp	r1, r5
42002460:	9a000002 	bls	42002470 <vTaskPrioritySet+0x70>
42002464:	ea000002 	b	42002474 <vTaskPrioritySet+0x74>
42002468:	e1540001 	cmp	r4, r1
4200246c:	1a000000 	bne	42002474 <vTaskPrioritySet+0x74>
42002470:	e3a06001 	mov	r6, #1
42002474:	e594702c 	ldr	r7, [r4, #44]	; 0x2c
42002478:	e1500007 	cmp	r0, r7
4200247c:	0584502c 	streq	r5, [r4, #44]	; 0x2c
42002480:	e0871107 	add	r1, r7, r7, lsl #2
42002484:	e5845048 	str	r5, [r4, #72]	; 0x48
42002488:	e5940018 	ldr	r0, [r4, #24]
4200248c:	e3100102 	tst	r0, #-2147483648	; 0x80000000
42002490:	02650007 	rsbeq	r0, r5, #7
42002494:	e51f5348 	ldr	r5, [pc, #-840]	; 42002154 <xTaskResumeAll+0x104>
42002498:	05840018 	streq	r0, [r4, #24]
4200249c:	e5940014 	ldr	r0, [r4, #20]
420024a0:	e0851101 	add	r1, r5, r1, lsl #2
420024a4:	e1500001 	cmp	r0, r1
420024a8:	1a00000f 	bne	420024ec <vTaskPrioritySet+0xec>
420024ac:	e2840004 	add	r0, r4, #4
420024b0:	ebfff7d2 	bl	42000400 <uxListRemove>
420024b4:	e3500000 	cmp	r0, #0
420024b8:	e3a01001 	mov	r1, #1
420024bc:	1a000002 	bne	420024cc <vTaskPrioritySet+0xcc>
420024c0:	e5982010 	ldr	r2, [r8, #16]
420024c4:	e1c20711 	bic	r0, r2, r1, lsl r7
420024c8:	e5880010 	str	r0, [r8, #16]
420024cc:	e594002c 	ldr	r0, [r4, #44]	; 0x2c
420024d0:	e5982010 	ldr	r2, [r8, #16]
420024d4:	e1821011 	orr	r1, r2, r1, lsl r0
420024d8:	e5881010 	str	r1, [r8, #16]
420024dc:	e0800100 	add	r0, r0, r0, lsl #2
420024e0:	e2841004 	add	r1, r4, #4
420024e4:	e0850100 	add	r0, r5, r0, lsl #2
420024e8:	ebfff7a3 	bl	4200037c <vListInsertEnd>
420024ec:	e3560000 	cmp	r6, #0
420024f0:	1f000000 	svcne	0x00000000
420024f4:	e8bd41f0 	pop	{r4, r5, r6, r7, r8, lr}
420024f8:	eafff936 	b	420009d8 <vPortExitCritical>

420024fc <vTaskSwitchContext>:
420024fc:	e92d4070 	push	{r4, r5, r6, lr}
42002500:	e51f53b8 	ldr	r5, [pc, #-952]	; 42002150 <xTaskResumeAll+0x100>
42002504:	e5950030 	ldr	r0, [r5, #48]	; 0x30
42002508:	e3500000 	cmp	r0, #0
4200250c:	13a00001 	movne	r0, #1
42002510:	1585001c 	strne	r0, [r5, #28]
42002514:	18bd8070 	popne	{r4, r5, r6, pc}
42002518:	e3a00000 	mov	r0, #0
4200251c:	e585001c 	str	r0, [r5, #28]
42002520:	ebfff828 	bl	420005c8 <GetRunTimeCounterValue>
42002524:	e5850038 	str	r0, [r5, #56]	; 0x38
42002528:	e5952034 	ldr	r2, [r5, #52]	; 0x34
4200252c:	e1500002 	cmp	r0, r2
42002530:	9a000004 	bls	42002548 <vTaskSwitchContext+0x4c>
42002534:	e5951000 	ldr	r1, [r5]
42002538:	e0402002 	sub	r2, r0, r2
4200253c:	e5913050 	ldr	r3, [r1, #80]	; 0x50
42002540:	e0822003 	add	r2, r2, r3
42002544:	e5812050 	str	r2, [r1, #80]	; 0x50
42002548:	e5850034 	str	r0, [r5, #52]	; 0x34
4200254c:	e5950000 	ldr	r0, [r5]
42002550:	e59f1548 	ldr	r1, [pc, #1352]	; 42002aa0 <xTaskGetHandle+0xa8>
42002554:	e5900030 	ldr	r0, [r0, #48]	; 0x30
42002558:	e5902000 	ldr	r2, [r0]
4200255c:	e1520001 	cmp	r2, r1
42002560:	05902004 	ldreq	r2, [r0, #4]
42002564:	01520001 	cmpeq	r2, r1
42002568:	1a000004 	bne	42002580 <vTaskSwitchContext+0x84>
4200256c:	e5902008 	ldr	r2, [r0, #8]
42002570:	e1520001 	cmp	r2, r1
42002574:	0590000c 	ldreq	r0, [r0, #12]
42002578:	01500001 	cmpeq	r0, r1
4200257c:	0a000003 	beq	42002590 <vTaskSwitchContext+0x94>
42002580:	e5950000 	ldr	r0, [r5]
42002584:	e2801034 	add	r1, r0, #52	; 0x34
42002588:	e5950000 	ldr	r0, [r5]
4200258c:	ebfff866 	bl	4200072c <vApplicationStackOverflowHook>
42002590:	e5950010 	ldr	r0, [r5, #16]
42002594:	e51f6448 	ldr	r6, [pc, #-1096]	; 42002154 <xTaskResumeAll+0x104>
42002598:	e16f0f10 	clz	r0, r0
4200259c:	e260001f 	rsb	r0, r0, #31
420025a0:	e0804100 	add	r4, r0, r0, lsl #2
420025a4:	e7960104 	ldr	r0, [r6, r4, lsl #2]
420025a8:	e3500000 	cmp	r0, #0
420025ac:	059f04f0 	ldreq	r0, [pc, #1264]	; 42002aa4 <xTaskGetHandle+0xac>
420025b0:	03a01eb5 	moveq	r1, #2896	; 0xb50
420025b4:	0bfff7e2 	bleq	42000544 <vAssertCalled>
420025b8:	e0860104 	add	r0, r6, r4, lsl #2
420025bc:	e2802008 	add	r2, r0, #8
420025c0:	e5901004 	ldr	r1, [r0, #4]
420025c4:	e5911004 	ldr	r1, [r1, #4]
420025c8:	e1510002 	cmp	r1, r2
420025cc:	e5801004 	str	r1, [r0, #4]
420025d0:	05911004 	ldreq	r1, [r1, #4]
420025d4:	05801004 	streq	r1, [r0, #4]
420025d8:	e591000c 	ldr	r0, [r1, #12]
420025dc:	e5850000 	str	r0, [r5]
420025e0:	e8bd8070 	pop	{r4, r5, r6, pc}

420025e4 <vTaskSuspend>:
420025e4:	e92d4070 	push	{r4, r5, r6, lr}
420025e8:	e1a04000 	mov	r4, r0
420025ec:	ebfff8e9 	bl	42000998 <vPortEnterCritical>
420025f0:	e51f54a8 	ldr	r5, [pc, #-1192]	; 42002150 <xTaskResumeAll+0x100>
420025f4:	e3540000 	cmp	r4, #0
420025f8:	05954000 	ldreq	r4, [r5]
420025fc:	e2840004 	add	r0, r4, #4
42002600:	ebfff77e 	bl	42000400 <uxListRemove>
42002604:	e3500000 	cmp	r0, #0
42002608:	1a00000a 	bne	42002638 <vTaskSuspend+0x54>
4200260c:	e594002c 	ldr	r0, [r4, #44]	; 0x2c
42002610:	e51f14c4 	ldr	r1, [pc, #-1220]	; 42002154 <xTaskResumeAll+0x104>
42002614:	e0802100 	add	r2, r0, r0, lsl #2
42002618:	e7911102 	ldr	r1, [r1, r2, lsl #2]
4200261c:	e3510000 	cmp	r1, #0
42002620:	1a000004 	bne	42002638 <vTaskSuspend+0x54>
42002624:	e3a01001 	mov	r1, #1
42002628:	e1a01011 	lsl	r1, r1, r0
4200262c:	e5950010 	ldr	r0, [r5, #16]
42002630:	e1c00001 	bic	r0, r0, r1
42002634:	e5850010 	str	r0, [r5, #16]
42002638:	e5940028 	ldr	r0, [r4, #40]	; 0x28
4200263c:	e3500000 	cmp	r0, #0
42002640:	12840018 	addne	r0, r4, #24
42002644:	1bfff76d 	blne	42000400 <uxListRemove>
42002648:	e51f04e8 	ldr	r0, [pc, #-1256]	; 42002168 <xTaskResumeAll+0x118>
4200264c:	e2841004 	add	r1, r4, #4
42002650:	ebfff749 	bl	4200037c <vListInsertEnd>
42002654:	e5d40058 	ldrb	r0, [r4, #88]	; 0x58
42002658:	e3a06000 	mov	r6, #0
4200265c:	e3500001 	cmp	r0, #1
42002660:	05c46058 	strbeq	r6, [r4, #88]	; 0x58
42002664:	ebfff8db 	bl	420009d8 <vPortExitCritical>
42002668:	e5950014 	ldr	r0, [r5, #20]
4200266c:	e3500000 	cmp	r0, #0
42002670:	0a000002 	beq	42002680 <vTaskSuspend+0x9c>
42002674:	ebfff8c7 	bl	42000998 <vPortEnterCritical>
42002678:	eb000534 	bl	42003b50 <prvResetNextTaskUnblockTime>
4200267c:	ebfff8d5 	bl	420009d8 <vPortExitCritical>
42002680:	e5950000 	ldr	r0, [r5]
42002684:	e1540000 	cmp	r4, r0
42002688:	18bd8070 	popne	{r4, r5, r6, pc}
4200268c:	e5950014 	ldr	r0, [r5, #20]
42002690:	e3500000 	cmp	r0, #0
42002694:	0a000006 	beq	420026b4 <vTaskSuspend+0xd0>
42002698:	e5950030 	ldr	r0, [r5, #48]	; 0x30
4200269c:	e3500000 	cmp	r0, #0
420026a0:	159f03fc 	ldrne	r0, [pc, #1020]	; 42002aa4 <xTaskGetHandle+0xac>
420026a4:	130016a2 	movwne	r1, #1698	; 0x6a2
420026a8:	1bfff7a5 	blne	42000544 <vAssertCalled>
420026ac:	ef000000 	svc	0x00000000
420026b0:	e8bd8070 	pop	{r4, r5, r6, pc}
420026b4:	e51f0554 	ldr	r0, [pc, #-1364]	; 42002168 <xTaskResumeAll+0x118>
420026b8:	e5900000 	ldr	r0, [r0]
420026bc:	e5951008 	ldr	r1, [r5, #8]
420026c0:	e1500001 	cmp	r0, r1
420026c4:	05856000 	streq	r6, [r5]
420026c8:	08bd8070 	popeq	{r4, r5, r6, pc}
420026cc:	e8bd4070 	pop	{r4, r5, r6, lr}
420026d0:	eaffff89 	b	420024fc <vTaskSwitchContext>

420026d4 <vTaskResume>:
420026d4:	e92d4070 	push	{r4, r5, r6, lr}
420026d8:	e1b04000 	movs	r4, r0
420026dc:	0a00001b 	beq	42002750 <vTaskResume+0x7c>
420026e0:	e51f5598 	ldr	r5, [pc, #-1432]	; 42002150 <xTaskResumeAll+0x100>
420026e4:	e5950000 	ldr	r0, [r5]
420026e8:	e1540000 	cmp	r4, r0
420026ec:	08bd8070 	popeq	{r4, r5, r6, pc}
420026f0:	ebfff8a8 	bl	42000998 <vPortEnterCritical>
420026f4:	e1a00004 	mov	r0, r4
420026f8:	eb000526 	bl	42003b98 <prvTaskIsTaskSuspended>
420026fc:	e3500000 	cmp	r0, #0
42002700:	0a000010 	beq	42002748 <vTaskResume+0x74>
42002704:	e2840004 	add	r0, r4, #4
42002708:	ebfff73c 	bl	42000400 <uxListRemove>
4200270c:	e594002c 	ldr	r0, [r4, #44]	; 0x2c
42002710:	e3a01001 	mov	r1, #1
42002714:	e5952010 	ldr	r2, [r5, #16]
42002718:	e1821011 	orr	r1, r2, r1, lsl r0
4200271c:	e5851010 	str	r1, [r5, #16]
42002720:	e0800100 	add	r0, r0, r0, lsl #2
42002724:	e51f15d8 	ldr	r1, [pc, #-1496]	; 42002154 <xTaskResumeAll+0x104>
42002728:	e0810100 	add	r0, r1, r0, lsl #2
4200272c:	e2841004 	add	r1, r4, #4
42002730:	ebfff711 	bl	4200037c <vListInsertEnd>
42002734:	e594002c 	ldr	r0, [r4, #44]	; 0x2c
42002738:	e5951000 	ldr	r1, [r5]
4200273c:	e591102c 	ldr	r1, [r1, #44]	; 0x2c
42002740:	e1510000 	cmp	r1, r0
42002744:	9f000000 	svcls	0x00000000
42002748:	e8bd4070 	pop	{r4, r5, r6, lr}
4200274c:	eafff8a1 	b	420009d8 <vPortExitCritical>
42002750:	e8bd4070 	pop	{r4, r5, r6, lr}
42002754:	e30016f6 	movw	r1, #1782	; 0x6f6
42002758:	e59f0344 	ldr	r0, [pc, #836]	; 42002aa4 <xTaskGetHandle+0xac>
4200275c:	eafff778 	b	42000544 <vAssertCalled>

42002760 <xTaskResumeFromISR>:
42002760:	e92d41f0 	push	{r4, r5, r6, r7, r8, lr}
42002764:	e1b04000 	movs	r4, r0
42002768:	059f0334 	ldreq	r0, [pc, #820]	; 42002aa4 <xTaskGetHandle+0xac>
4200276c:	e3a05000 	mov	r5, #0
42002770:	0300172d 	movweq	r1, #1837	; 0x72d
42002774:	0bfff772 	bleq	42000544 <vAssertCalled>
42002778:	ebfff8d4 	bl	42000ad0 <vPortValidateInterruptPriority>
4200277c:	ebfff82a 	bl	4200082c <ulPortSetInterruptMask>
42002780:	e1a06000 	mov	r6, r0
42002784:	e1a00004 	mov	r0, r4
42002788:	eb000502 	bl	42003b98 <prvTaskIsTaskSuspended>
4200278c:	e3500000 	cmp	r0, #0
42002790:	0a000016 	beq	420027f0 <xTaskResumeFromISR+0x90>
42002794:	e51f764c 	ldr	r7, [pc, #-1612]	; 42002150 <xTaskResumeAll+0x100>
42002798:	e5970030 	ldr	r0, [r7, #48]	; 0x30
4200279c:	e3500000 	cmp	r0, #0
420027a0:	151f0648 	ldrne	r0, [pc, #-1608]	; 42002160 <xTaskResumeAll+0x110>
420027a4:	12841018 	addne	r1, r4, #24
420027a8:	1a00000f 	bne	420027ec <xTaskResumeFromISR+0x8c>
420027ac:	e594002c 	ldr	r0, [r4, #44]	; 0x2c
420027b0:	e5971000 	ldr	r1, [r7]
420027b4:	e591102c 	ldr	r1, [r1, #44]	; 0x2c
420027b8:	e1500001 	cmp	r0, r1
420027bc:	e2840004 	add	r0, r4, #4
420027c0:	23a05001 	movcs	r5, #1
420027c4:	ebfff70d 	bl	42000400 <uxListRemove>
420027c8:	e594002c 	ldr	r0, [r4, #44]	; 0x2c
420027cc:	e3a01001 	mov	r1, #1
420027d0:	e5972010 	ldr	r2, [r7, #16]
420027d4:	e1821011 	orr	r1, r2, r1, lsl r0
420027d8:	e5871010 	str	r1, [r7, #16]
420027dc:	e0800100 	add	r0, r0, r0, lsl #2
420027e0:	e51f1694 	ldr	r1, [pc, #-1684]	; 42002154 <xTaskResumeAll+0x104>
420027e4:	e0810100 	add	r0, r1, r0, lsl #2
420027e8:	e2841004 	add	r1, r4, #4
420027ec:	ebfff6e2 	bl	4200037c <vListInsertEnd>
420027f0:	e1a00006 	mov	r0, r6
420027f4:	ebfff8ad 	bl	42000ab0 <vPortClearInterruptMask>
420027f8:	e1a00005 	mov	r0, r5
420027fc:	e8bd81f0 	pop	{r4, r5, r6, r7, r8, pc}

42002800 <prvIdleTask>:
42002800:	e51f66a4 	ldr	r6, [pc, #-1700]	; 42002164 <xTaskResumeAll+0x114>
42002804:	e51f56bc 	ldr	r5, [pc, #-1724]	; 42002150 <xTaskResumeAll+0x100>
42002808:	e24670c8 	sub	r7, r6, #200	; 0xc8
4200280c:	ea00000d 	b	42002848 <prvIdleTask+0x48>
42002810:	ebfff860 	bl	42000998 <vPortEnterCritical>
42002814:	e596000c 	ldr	r0, [r6, #12]
42002818:	e590400c 	ldr	r4, [r0, #12]
4200281c:	e2840004 	add	r0, r4, #4
42002820:	ebfff6f6 	bl	42000400 <uxListRemove>
42002824:	e5950008 	ldr	r0, [r5, #8]
42002828:	e2400001 	sub	r0, r0, #1
4200282c:	e5850008 	str	r0, [r5, #8]
42002830:	e5950004 	ldr	r0, [r5, #4]
42002834:	e2400001 	sub	r0, r0, #1
42002838:	e5850004 	str	r0, [r5, #4]
4200283c:	ebfff865 	bl	420009d8 <vPortExitCritical>
42002840:	e1a00004 	mov	r0, r4
42002844:	eb0004cc 	bl	42003b7c <prvDeleteTCB>
42002848:	e5950004 	ldr	r0, [r5, #4]
4200284c:	e3500000 	cmp	r0, #0
42002850:	1affffee 	bne	42002810 <prvIdleTask+0x10>
42002854:	e5970000 	ldr	r0, [r7]
42002858:	e3500001 	cmp	r0, #1
4200285c:	8f000000 	svchi	0x00000000
42002860:	ebfff7b0 	bl	42000728 <vApplicationIdleHook>
42002864:	eafffff7 	b	42002848 <prvIdleTask+0x48>

42002868 <vTaskStartScheduler>:
42002868:	e92d401c 	push	{r2, r3, r4, lr}
4200286c:	e3a04000 	mov	r4, #0
42002870:	e59f0230 	ldr	r0, [pc, #560]	; 42002aa8 <xTaskGetHandle+0xb0>
42002874:	e1a03004 	mov	r3, r4
42002878:	e3a020fa 	mov	r2, #250	; 0xfa
4200287c:	e28f1f8a 	add	r1, pc, #552	; 0x228
42002880:	e58d4000 	str	r4, [sp]
42002884:	e58d0004 	str	r0, [sp, #4]
42002888:	e59f0224 	ldr	r0, [pc, #548]	; 42002ab4 <xTaskGetHandle+0xbc>
4200288c:	ebfffd3f 	bl	42001d90 <xTaskCreate>
42002890:	e3500001 	cmp	r0, #1
42002894:	1a000002 	bne	420028a4 <vTaskStartScheduler+0x3c>
42002898:	eb00059c 	bl	42003f10 <xTimerCreateTimerTask>
4200289c:	e3500001 	cmp	r0, #1
420028a0:	0a000005 	beq	420028bc <vTaskStartScheduler+0x54>
420028a4:	e3700001 	cmn	r0, #1
420028a8:	1a000002 	bne	420028b8 <vTaskStartScheduler+0x50>
420028ac:	e30017dc 	movw	r1, #2012	; 0x7dc
420028b0:	e59f01ec 	ldr	r0, [pc, #492]	; 42002aa4 <xTaskGetHandle+0xac>
420028b4:	ebfff722 	bl	42000544 <vAssertCalled>
420028b8:	e8bd801c 	pop	{r2, r3, r4, pc}
420028bc:	ebfff7da 	bl	4200082c <ulPortSetInterruptMask>
420028c0:	e51f0778 	ldr	r0, [pc, #-1912]	; 42002150 <xTaskResumeAll+0x100>
420028c4:	e3e01000 	mvn	r1, #0
420028c8:	e5801028 	str	r1, [r0, #40]	; 0x28
420028cc:	e3a01001 	mov	r1, #1
420028d0:	e5801014 	str	r1, [r0, #20]
420028d4:	e580400c 	str	r4, [r0, #12]
420028d8:	ebfff798 	bl	42000740 <vInitialiseTimerForRunTimeStats>
420028dc:	ebfff80d 	bl	42000918 <xPortStartScheduler>
420028e0:	e8bd801c 	pop	{r2, r3, r4, pc}

420028e4 <vTaskEndScheduler>:
420028e4:	e92d4010 	push	{r4, lr}
420028e8:	ebfff7cf 	bl	4200082c <ulPortSetInterruptMask>
420028ec:	e51f17a4 	ldr	r1, [pc, #-1956]	; 42002150 <xTaskResumeAll+0x100>
420028f0:	e3a00000 	mov	r0, #0
420028f4:	e5810014 	str	r0, [r1, #20]
420028f8:	e8bd4010 	pop	{r4, lr}
420028fc:	eafff81e 	b	4200097c <vPortEndScheduler>

42002900 <xTaskGetTickCount>:
42002900:	e51f07b8 	ldr	r0, [pc, #-1976]	; 42002150 <xTaskResumeAll+0x100>
42002904:	e590000c 	ldr	r0, [r0, #12]
42002908:	e12fff1e 	bx	lr

4200290c <xTaskGetTickCountFromISR>:
4200290c:	e92d4010 	push	{r4, lr}
42002910:	ebfff86e 	bl	42000ad0 <vPortValidateInterruptPriority>
42002914:	e51f07cc 	ldr	r0, [pc, #-1996]	; 42002150 <xTaskResumeAll+0x100>
42002918:	e590000c 	ldr	r0, [r0, #12]
4200291c:	e8bd8010 	pop	{r4, pc}

42002920 <uxTaskGetNumberOfTasks>:
42002920:	e51f07d8 	ldr	r0, [pc, #-2008]	; 42002150 <xTaskResumeAll+0x100>
42002924:	e5900008 	ldr	r0, [r0, #8]
42002928:	e12fff1e 	bx	lr

4200292c <pcTaskGetName>:
4200292c:	e3500000 	cmp	r0, #0
42002930:	051f07e8 	ldreq	r0, [pc, #-2024]	; 42002150 <xTaskResumeAll+0x100>
42002934:	e92d4010 	push	{r4, lr}
42002938:	05904000 	ldreq	r4, [r0]
4200293c:	11a04000 	movne	r4, r0
42002940:	e3540000 	cmp	r4, #0
42002944:	059f0158 	ldreq	r0, [pc, #344]	; 42002aa4 <xTaskGetHandle+0xac>
42002948:	030018e4 	movweq	r1, #2276	; 0x8e4
4200294c:	0bfff6fc 	bleq	42000544 <vAssertCalled>
42002950:	e2840034 	add	r0, r4, #52	; 0x34
42002954:	e8bd8010 	pop	{r4, pc}

42002958 <prvSearchForNameWithinSingleList>:
42002958:	e92d40f0 	push	{r4, r5, r6, r7, lr}
4200295c:	e3a05000 	mov	r5, #0
42002960:	e5902000 	ldr	r2, [r0]
42002964:	e3520000 	cmp	r2, #0
42002968:	0a000020 	beq	420029f0 <prvSearchForNameWithinSingleList+0x98>
4200296c:	e5902004 	ldr	r2, [r0, #4]
42002970:	e2806008 	add	r6, r0, #8
42002974:	e5922004 	ldr	r2, [r2, #4]
42002978:	e1520006 	cmp	r2, r6
4200297c:	e5802004 	str	r2, [r0, #4]
42002980:	05923004 	ldreq	r3, [r2, #4]
42002984:	05803004 	streq	r3, [r0, #4]
42002988:	e5902004 	ldr	r2, [r0, #4]
4200298c:	e592700c 	ldr	r7, [r2, #12]
42002990:	e5902004 	ldr	r2, [r0, #4]
42002994:	e5922004 	ldr	r2, [r2, #4]
42002998:	e1520006 	cmp	r2, r6
4200299c:	e5802004 	str	r2, [r0, #4]
420029a0:	05923004 	ldreq	r3, [r2, #4]
420029a4:	05803004 	streq	r3, [r0, #4]
420029a8:	e5902004 	ldr	r2, [r0, #4]
420029ac:	e592300c 	ldr	r3, [r2, #12]
420029b0:	e3a02000 	mov	r2, #0
420029b4:	e7d1c002 	ldrb	ip, [r1, r2]
420029b8:	e0834002 	add	r4, r3, r2
420029bc:	e5d44034 	ldrb	r4, [r4, #52]	; 0x34
420029c0:	e15c0004 	cmp	ip, r4
420029c4:	1a000005 	bne	420029e0 <prvSearchForNameWithinSingleList+0x88>
420029c8:	e3540000 	cmp	r4, #0
420029cc:	01a05003 	moveq	r5, r3
420029d0:	0a000002 	beq	420029e0 <prvSearchForNameWithinSingleList+0x88>
420029d4:	e2822001 	add	r2, r2, #1
420029d8:	e352000a 	cmp	r2, #10
420029dc:	3afffff4 	bcc	420029b4 <prvSearchForNameWithinSingleList+0x5c>
420029e0:	e3550000 	cmp	r5, #0
420029e4:	1a000001 	bne	420029f0 <prvSearchForNameWithinSingleList+0x98>
420029e8:	e1530007 	cmp	r3, r7
420029ec:	1affffe7 	bne	42002990 <prvSearchForNameWithinSingleList+0x38>
420029f0:	e1a00005 	mov	r0, r5
420029f4:	e8bd80f0 	pop	{r4, r5, r6, r7, pc}

420029f8 <xTaskGetHandle>:
420029f8:	e92d41f0 	push	{r4, r5, r6, r7, r8, lr}
420029fc:	e1a06000 	mov	r6, r0
42002a00:	e3a05007 	mov	r5, #7
42002a04:	fb0007eb 	blx	420049ba <strlen>
42002a08:	e350000a 	cmp	r0, #10
42002a0c:	259f0090 	ldrcs	r0, [pc, #144]	; 42002aa4 <xTaskGetHandle+0xac>
42002a10:	2300192e 	movwcs	r1, #2350	; 0x92e
42002a14:	2bfff6ca 	blcs	42000544 <vAssertCalled>
42002a18:	ebfffe02 	bl	42002228 <vTaskSuspendAll>
42002a1c:	e51f78d0 	ldr	r7, [pc, #-2256]	; 42002154 <xTaskResumeAll+0x104>
42002a20:	e2455001 	sub	r5, r5, #1
42002a24:	e1a01006 	mov	r1, r6
42002a28:	e0850105 	add	r0, r5, r5, lsl #2
42002a2c:	e0870100 	add	r0, r7, r0, lsl #2
42002a30:	ebffffc8 	bl	42002958 <prvSearchForNameWithinSingleList>
42002a34:	e1b04000 	movs	r4, r0
42002a38:	1a000015 	bne	42002a94 <xTaskGetHandle+0x9c>
42002a3c:	e3550000 	cmp	r5, #0
42002a40:	1afffff6 	bne	42002a20 <xTaskGetHandle+0x28>
42002a44:	e1a01006 	mov	r1, r6
42002a48:	e51f5900 	ldr	r5, [pc, #-2304]	; 42002150 <xTaskResumeAll+0x100>
42002a4c:	e595003c 	ldr	r0, [r5, #60]	; 0x3c
42002a50:	ebffffc0 	bl	42002958 <prvSearchForNameWithinSingleList>
42002a54:	e1b04000 	movs	r4, r0
42002a58:	1a00000d 	bne	42002a94 <xTaskGetHandle+0x9c>
42002a5c:	e5950040 	ldr	r0, [r5, #64]	; 0x40
42002a60:	e1a01006 	mov	r1, r6
42002a64:	ebffffbb 	bl	42002958 <prvSearchForNameWithinSingleList>
42002a68:	e1b04000 	movs	r4, r0
42002a6c:	1a000008 	bne	42002a94 <xTaskGetHandle+0x9c>
42002a70:	e1a01006 	mov	r1, r6
42002a74:	e51f0914 	ldr	r0, [pc, #-2324]	; 42002168 <xTaskResumeAll+0x118>
42002a78:	ebffffb6 	bl	42002958 <prvSearchForNameWithinSingleList>
42002a7c:	e1b04000 	movs	r4, r0
42002a80:	1a000003 	bne	42002a94 <xTaskGetHandle+0x9c>
42002a84:	e1a01006 	mov	r1, r6
42002a88:	e51f092c 	ldr	r0, [pc, #-2348]	; 42002164 <xTaskResumeAll+0x114>
42002a8c:	ebffffb1 	bl	42002958 <prvSearchForNameWithinSingleList>
42002a90:	e1a04000 	mov	r4, r0
42002a94:	ebfffd6d 	bl	42002050 <xTaskResumeAll>
42002a98:	e1a00004 	mov	r0, r4
42002a9c:	e8bd81f0 	pop	{r4, r5, r6, r7, r8, pc}
42002aa0:	a5a5a5a5 	strge	sl, [r5, #1445]!	; 0x5a5
42002aa4:	4200216c 	andmi	r2, r0, #108, 2
42002aa8:	42005a30 	andmi	r5, r0, #48, 20	; 0x30000
42002aac:	454c4449 	strbmi	r4, [ip, #-1097]	; 0x449
42002ab0:	00000000 	andeq	r0, r0, r0
42002ab4:	42002800 	andmi	r2, r0, #0, 16

42002ab8 <vTaskGetInfo>:
42002ab8:	e92d41f0 	push	{r4, r5, r6, r7, r8, lr}
42002abc:	e1a04001 	mov	r4, r1
42002ac0:	e51f1978 	ldr	r1, [pc, #-2424]	; 42002150 <xTaskResumeAll+0x100>
42002ac4:	e3500000 	cmp	r0, #0
42002ac8:	e1a06002 	mov	r6, r2
42002acc:	05915000 	ldreq	r5, [r1]
42002ad0:	11a05000 	movne	r5, r0
42002ad4:	e3530005 	cmp	r3, #5
42002ad8:	e3a07000 	mov	r7, #0
42002adc:	e2850034 	add	r0, r5, #52	; 0x34
42002ae0:	e5845000 	str	r5, [r4]
42002ae4:	e5840004 	str	r0, [r4, #4]
42002ae8:	e595002c 	ldr	r0, [r5, #44]	; 0x2c
42002aec:	e5840010 	str	r0, [r4, #16]
42002af0:	e5950030 	ldr	r0, [r5, #48]	; 0x30
42002af4:	e584001c 	str	r0, [r4, #28]
42002af8:	e5950040 	ldr	r0, [r5, #64]	; 0x40
42002afc:	e5840008 	str	r0, [r4, #8]
42002b00:	e5950048 	ldr	r0, [r5, #72]	; 0x48
42002b04:	e5840014 	str	r0, [r4, #20]
42002b08:	e5950050 	ldr	r0, [r5, #80]	; 0x50
42002b0c:	e5840018 	str	r0, [r4, #24]
42002b10:	0a00000d 	beq	42002b4c <vTaskGetInfo+0x94>
42002b14:	e5910000 	ldr	r0, [r1]
42002b18:	e1550000 	cmp	r5, r0
42002b1c:	05c4700c 	strbeq	r7, [r4, #12]
42002b20:	0a00000c 	beq	42002b58 <vTaskGetInfo+0xa0>
42002b24:	e5c4300c 	strb	r3, [r4, #12]
42002b28:	e3530003 	cmp	r3, #3
42002b2c:	1a000009 	bne	42002b58 <vTaskGetInfo+0xa0>
42002b30:	ebfffdbc 	bl	42002228 <vTaskSuspendAll>
42002b34:	e5950028 	ldr	r0, [r5, #40]	; 0x28
42002b38:	e3500000 	cmp	r0, #0
42002b3c:	13a00002 	movne	r0, #2
42002b40:	15c4000c 	strbne	r0, [r4, #12]
42002b44:	ebfffd41 	bl	42002050 <xTaskResumeAll>
42002b48:	ea000002 	b	42002b58 <vTaskGetInfo+0xa0>
42002b4c:	e1a00005 	mov	r0, r5
42002b50:	ebfffdf3 	bl	42002324 <eTaskGetState>
42002b54:	e5c4000c 	strb	r0, [r4, #12]
42002b58:	e3560000 	cmp	r6, #0
42002b5c:	15950030 	ldrne	r0, [r5, #48]	; 0x30
42002b60:	13a01000 	movne	r1, #0
42002b64:	01c472b0 	strheq	r7, [r4, #32]
42002b68:	08bd81f0 	popeq	{r4, r5, r6, r7, r8, pc}
42002b6c:	e5d02000 	ldrb	r2, [r0]
42002b70:	e35200a5 	cmp	r2, #165	; 0xa5
42002b74:	02800001 	addeq	r0, r0, #1
42002b78:	11a00121 	lsrne	r0, r1, #2
42002b7c:	02811001 	addeq	r1, r1, #1
42002b80:	11c402b0 	strhne	r0, [r4, #32]
42002b84:	0afffff8 	beq	42002b6c <vTaskGetInfo+0xb4>
42002b88:	e8bd81f0 	pop	{r4, r5, r6, r7, r8, pc}

42002b8c <prvListTasksWithinSingleList>:
42002b8c:	e92d47f0 	push	{r4, r5, r6, r7, r8, r9, sl, lr}
42002b90:	e1a09000 	mov	r9, r0
42002b94:	e5910000 	ldr	r0, [r1]
42002b98:	e1a05001 	mov	r5, r1
42002b9c:	e1a0a002 	mov	sl, r2
42002ba0:	e3a04000 	mov	r4, #0
42002ba4:	e3500000 	cmp	r0, #0
42002ba8:	0a000019 	beq	42002c14 <prvListTasksWithinSingleList+0x88>
42002bac:	e5950004 	ldr	r0, [r5, #4]
42002bb0:	e2858008 	add	r8, r5, #8
42002bb4:	e5900004 	ldr	r0, [r0, #4]
42002bb8:	e1500008 	cmp	r0, r8
42002bbc:	e5850004 	str	r0, [r5, #4]
42002bc0:	05901004 	ldreq	r1, [r0, #4]
42002bc4:	05851004 	streq	r1, [r5, #4]
42002bc8:	e5950004 	ldr	r0, [r5, #4]
42002bcc:	e590700c 	ldr	r7, [r0, #12]
42002bd0:	e1a0300a 	mov	r3, sl
42002bd4:	e5950004 	ldr	r0, [r5, #4]
42002bd8:	e3a02001 	mov	r2, #1
42002bdc:	e5900004 	ldr	r0, [r0, #4]
42002be0:	e1500008 	cmp	r0, r8
42002be4:	e5850004 	str	r0, [r5, #4]
42002be8:	05901004 	ldreq	r1, [r0, #4]
42002bec:	05851004 	streq	r1, [r5, #4]
42002bf0:	e5950004 	ldr	r0, [r5, #4]
42002bf4:	e590600c 	ldr	r6, [r0, #12]
42002bf8:	e0840184 	add	r0, r4, r4, lsl #3
42002bfc:	e0891100 	add	r1, r9, r0, lsl #2
42002c00:	e1a00006 	mov	r0, r6
42002c04:	ebffffab 	bl	42002ab8 <vTaskGetInfo>
42002c08:	e1560007 	cmp	r6, r7
42002c0c:	e2844001 	add	r4, r4, #1
42002c10:	1affffee 	bne	42002bd0 <prvListTasksWithinSingleList+0x44>
42002c14:	e1a00004 	mov	r0, r4
42002c18:	e8bd87f0 	pop	{r4, r5, r6, r7, r8, r9, sl, pc}

42002c1c <uxTaskGetSystemState>:
42002c1c:	e92d47f0 	push	{r4, r5, r6, r7, r8, r9, sl, lr}
42002c20:	e1a06000 	mov	r6, r0
42002c24:	e1a03001 	mov	r3, r1
42002c28:	e1a07002 	mov	r7, r2
42002c2c:	e3a04000 	mov	r4, #0
42002c30:	e3a05007 	mov	r5, #7
42002c34:	ebfffd7b 	bl	42002228 <vTaskSuspendAll>
42002c38:	e51f8af0 	ldr	r8, [pc, #-2800]	; 42002150 <xTaskResumeAll+0x100>
42002c3c:	e5980008 	ldr	r0, [r8, #8]
42002c40:	e1530000 	cmp	r3, r0
42002c44:	251f9af8 	ldrcs	r9, [pc, #-2808]	; 42002154 <xTaskResumeAll+0x104>
42002c48:	3a000025 	bcc	42002ce4 <uxTaskGetSystemState+0xc8>
42002c4c:	e2455001 	sub	r5, r5, #1
42002c50:	e3a02001 	mov	r2, #1
42002c54:	e0850105 	add	r0, r5, r5, lsl #2
42002c58:	e0891100 	add	r1, r9, r0, lsl #2
42002c5c:	e0840184 	add	r0, r4, r4, lsl #3
42002c60:	e0860100 	add	r0, r6, r0, lsl #2
42002c64:	ebffffc8 	bl	42002b8c <prvListTasksWithinSingleList>
42002c68:	e3550000 	cmp	r5, #0
42002c6c:	e0844000 	add	r4, r4, r0
42002c70:	1afffff5 	bne	42002c4c <uxTaskGetSystemState+0x30>
42002c74:	e598103c 	ldr	r1, [r8, #60]	; 0x3c
42002c78:	e0840184 	add	r0, r4, r4, lsl #3
42002c7c:	e3a02002 	mov	r2, #2
42002c80:	e0860100 	add	r0, r6, r0, lsl #2
42002c84:	ebffffc0 	bl	42002b8c <prvListTasksWithinSingleList>
42002c88:	e0844000 	add	r4, r4, r0
42002c8c:	e5981040 	ldr	r1, [r8, #64]	; 0x40
42002c90:	e3a02002 	mov	r2, #2
42002c94:	e0840184 	add	r0, r4, r4, lsl #3
42002c98:	e0860100 	add	r0, r6, r0, lsl #2
42002c9c:	ebffffba 	bl	42002b8c <prvListTasksWithinSingleList>
42002ca0:	e0844000 	add	r4, r4, r0
42002ca4:	e51f1b48 	ldr	r1, [pc, #-2888]	; 42002164 <xTaskResumeAll+0x114>
42002ca8:	e3a02004 	mov	r2, #4
42002cac:	e0840184 	add	r0, r4, r4, lsl #3
42002cb0:	e0860100 	add	r0, r6, r0, lsl #2
42002cb4:	ebffffb4 	bl	42002b8c <prvListTasksWithinSingleList>
42002cb8:	e0844000 	add	r4, r4, r0
42002cbc:	e51f1b5c 	ldr	r1, [pc, #-2908]	; 42002168 <xTaskResumeAll+0x118>
42002cc0:	e3a02003 	mov	r2, #3
42002cc4:	e0840184 	add	r0, r4, r4, lsl #3
42002cc8:	e0860100 	add	r0, r6, r0, lsl #2
42002ccc:	ebffffae 	bl	42002b8c <prvListTasksWithinSingleList>
42002cd0:	e3570000 	cmp	r7, #0
42002cd4:	e0844000 	add	r4, r4, r0
42002cd8:	0a000001 	beq	42002ce4 <uxTaskGetSystemState+0xc8>
42002cdc:	ebfff639 	bl	420005c8 <GetRunTimeCounterValue>
42002ce0:	e5870000 	str	r0, [r7]
42002ce4:	ebfffcd9 	bl	42002050 <xTaskResumeAll>
42002ce8:	e1a00004 	mov	r0, r4
42002cec:	e8bd87f0 	pop	{r4, r5, r6, r7, r8, r9, sl, pc}

42002cf0 <xTaskAbortDelay>:
42002cf0:	e92d41f0 	push	{r4, r5, r6, r7, r8, lr}
42002cf4:	e1b04000 	movs	r4, r0
42002cf8:	051f025c 	ldreq	r0, [pc, #-604]	; 42002aa4 <xTaskGetHandle+0xac>
42002cfc:	030019d8 	movweq	r1, #2520	; 0x9d8
42002d00:	0bfff60f 	bleq	42000544 <vAssertCalled>
42002d04:	ebfffd47 	bl	42002228 <vTaskSuspendAll>
42002d08:	e1a00004 	mov	r0, r4
42002d0c:	ebfffd84 	bl	42002324 <eTaskGetState>
42002d10:	e3500002 	cmp	r0, #2
42002d14:	13a05000 	movne	r5, #0
42002d18:	0a000002 	beq	42002d28 <xTaskAbortDelay+0x38>
42002d1c:	ebfffccb 	bl	42002050 <xTaskResumeAll>
42002d20:	e1a00005 	mov	r0, r5
42002d24:	e8bd81f0 	pop	{r4, r5, r6, r7, r8, pc}
42002d28:	e3a05001 	mov	r5, #1
42002d2c:	e2840004 	add	r0, r4, #4
42002d30:	ebfff5b2 	bl	42000400 <uxListRemove>
42002d34:	ebfff717 	bl	42000998 <vPortEnterCritical>
42002d38:	e5940028 	ldr	r0, [r4, #40]	; 0x28
42002d3c:	e3a07001 	mov	r7, #1
42002d40:	e3500000 	cmp	r0, #0
42002d44:	0a000002 	beq	42002d54 <xTaskAbortDelay+0x64>
42002d48:	e2840018 	add	r0, r4, #24
42002d4c:	ebfff5ab 	bl	42000400 <uxListRemove>
42002d50:	e5c47059 	strb	r7, [r4, #89]	; 0x59
42002d54:	ebfff71f 	bl	420009d8 <vPortExitCritical>
42002d58:	e51f6c10 	ldr	r6, [pc, #-3088]	; 42002150 <xTaskResumeAll+0x100>
42002d5c:	e594002c 	ldr	r0, [r4, #44]	; 0x2c
42002d60:	e5962010 	ldr	r2, [r6, #16]
42002d64:	e1821017 	orr	r1, r2, r7, lsl r0
42002d68:	e5861010 	str	r1, [r6, #16]
42002d6c:	e0800100 	add	r0, r0, r0, lsl #2
42002d70:	e51f1c24 	ldr	r1, [pc, #-3108]	; 42002154 <xTaskResumeAll+0x104>
42002d74:	e0810100 	add	r0, r1, r0, lsl #2
42002d78:	e2841004 	add	r1, r4, #4
42002d7c:	ebfff57e 	bl	4200037c <vListInsertEnd>
42002d80:	e594002c 	ldr	r0, [r4, #44]	; 0x2c
42002d84:	e5961000 	ldr	r1, [r6]
42002d88:	e591102c 	ldr	r1, [r1, #44]	; 0x2c
42002d8c:	e1500001 	cmp	r0, r1
42002d90:	8586701c 	strhi	r7, [r6, #28]
42002d94:	eaffffe0 	b	42002d1c <xTaskAbortDelay+0x2c>

42002d98 <vTaskPlaceOnEventList>:
42002d98:	e92d4070 	push	{r4, r5, r6, lr}
42002d9c:	e1b04000 	movs	r4, r0
42002da0:	051f0304 	ldreq	r0, [pc, #-772]	; 42002aa4 <xTaskGetHandle+0xac>
42002da4:	e1a05001 	mov	r5, r1
42002da8:	03a01eb6 	moveq	r1, #2912	; 0xb60
42002dac:	0bfff5e4 	bleq	42000544 <vAssertCalled>
42002db0:	e51f0c68 	ldr	r0, [pc, #-3176]	; 42002150 <xTaskResumeAll+0x100>
42002db4:	e5900000 	ldr	r0, [r0]
42002db8:	e2801018 	add	r1, r0, #24
42002dbc:	e1a00004 	mov	r0, r4
42002dc0:	ebfff579 	bl	420003ac <vListInsert>
42002dc4:	e1a00005 	mov	r0, r5
42002dc8:	e3a01001 	mov	r1, #1
42002dcc:	e8bd4070 	pop	{r4, r5, r6, lr}
42002dd0:	eafffce7 	b	42002174 <prvAddCurrentTaskToDelayedList>

42002dd4 <vTaskPlaceOnUnorderedEventList>:
42002dd4:	e92d41f0 	push	{r4, r5, r6, r7, r8, lr}
42002dd8:	e1b04000 	movs	r4, r0
42002ddc:	051f0340 	ldreq	r0, [pc, #-832]	; 42002aa4 <xTaskGetHandle+0xac>
42002de0:	e1a05001 	mov	r5, r1
42002de4:	e1a06002 	mov	r6, r2
42002de8:	03001b71 	movweq	r1, #2929	; 0xb71
42002dec:	0bfff5d4 	bleq	42000544 <vAssertCalled>
42002df0:	e51f7ca8 	ldr	r7, [pc, #-3240]	; 42002150 <xTaskResumeAll+0x100>
42002df4:	e5970030 	ldr	r0, [r7, #48]	; 0x30
42002df8:	e3500000 	cmp	r0, #0
42002dfc:	051f0360 	ldreq	r0, [pc, #-864]	; 42002aa4 <xTaskGetHandle+0xac>
42002e00:	03001b75 	movweq	r1, #2933	; 0xb75
42002e04:	0bfff5ce 	bleq	42000544 <vAssertCalled>
42002e08:	e5971000 	ldr	r1, [r7]
42002e0c:	e3850102 	orr	r0, r5, #-2147483648	; 0x80000000
42002e10:	e5810018 	str	r0, [r1, #24]
42002e14:	e5970000 	ldr	r0, [r7]
42002e18:	e2801018 	add	r1, r0, #24
42002e1c:	e1a00004 	mov	r0, r4
42002e20:	ebfff555 	bl	4200037c <vListInsertEnd>
42002e24:	e1a00006 	mov	r0, r6
42002e28:	e3a01001 	mov	r1, #1
42002e2c:	e8bd41f0 	pop	{r4, r5, r6, r7, r8, lr}
42002e30:	eafffccf 	b	42002174 <prvAddCurrentTaskToDelayedList>

42002e34 <vTaskPlaceOnEventListRestricted>:
42002e34:	e92d4070 	push	{r4, r5, r6, lr}
42002e38:	e1b06000 	movs	r6, r0
42002e3c:	051f03a0 	ldreq	r0, [pc, #-928]	; 42002aa4 <xTaskGetHandle+0xac>
42002e40:	e1a04001 	mov	r4, r1
42002e44:	e1a05002 	mov	r5, r2
42002e48:	03001b8b 	movweq	r1, #2955	; 0xb8b
42002e4c:	0bfff5bc 	bleq	42000544 <vAssertCalled>
42002e50:	e51f0d08 	ldr	r0, [pc, #-3336]	; 42002150 <xTaskResumeAll+0x100>
42002e54:	e5900000 	ldr	r0, [r0]
42002e58:	e2801018 	add	r1, r0, #24
42002e5c:	e1a00006 	mov	r0, r6
42002e60:	ebfff545 	bl	4200037c <vListInsertEnd>
42002e64:	e3550000 	cmp	r5, #0
42002e68:	e1a01005 	mov	r1, r5
42002e6c:	13e04000 	mvnne	r4, #0
42002e70:	e1a00004 	mov	r0, r4
42002e74:	e8bd4070 	pop	{r4, r5, r6, lr}
42002e78:	eafffcbd 	b	42002174 <prvAddCurrentTaskToDelayedList>

42002e7c <xTaskRemoveFromEventList>:
42002e7c:	e92d4070 	push	{r4, r5, r6, lr}
42002e80:	e590000c 	ldr	r0, [r0, #12]
42002e84:	e590400c 	ldr	r4, [r0, #12]
42002e88:	e3540000 	cmp	r4, #0
42002e8c:	051f03f0 	ldreq	r0, [pc, #-1008]	; 42002aa4 <xTaskGetHandle+0xac>
42002e90:	03001bbb 	movweq	r1, #3003	; 0xbbb
42002e94:	0bfff5aa 	bleq	42000544 <vAssertCalled>
42002e98:	e2840018 	add	r0, r4, #24
42002e9c:	ebfff557 	bl	42000400 <uxListRemove>
42002ea0:	e51f5d58 	ldr	r5, [pc, #-3416]	; 42002150 <xTaskResumeAll+0x100>
42002ea4:	e5950030 	ldr	r0, [r5, #48]	; 0x30
42002ea8:	e3a06001 	mov	r6, #1
42002eac:	e3500000 	cmp	r0, #0
42002eb0:	151f0d58 	ldrne	r0, [pc, #-3416]	; 42002160 <xTaskResumeAll+0x110>
42002eb4:	12841018 	addne	r1, r4, #24
42002eb8:	0a000008 	beq	42002ee0 <xTaskRemoveFromEventList+0x64>
42002ebc:	ebfff52e 	bl	4200037c <vListInsertEnd>
42002ec0:	e594002c 	ldr	r0, [r4, #44]	; 0x2c
42002ec4:	e5951000 	ldr	r1, [r5]
42002ec8:	e591102c 	ldr	r1, [r1, #44]	; 0x2c
42002ecc:	e1500001 	cmp	r0, r1
42002ed0:	83a00001 	movhi	r0, #1
42002ed4:	8585601c 	strhi	r6, [r5, #28]
42002ed8:	93a00000 	movls	r0, #0
42002edc:	e8bd8070 	pop	{r4, r5, r6, pc}
42002ee0:	e2840004 	add	r0, r4, #4
42002ee4:	ebfff545 	bl	42000400 <uxListRemove>
42002ee8:	e594002c 	ldr	r0, [r4, #44]	; 0x2c
42002eec:	e5952010 	ldr	r2, [r5, #16]
42002ef0:	e1821016 	orr	r1, r2, r6, lsl r0
42002ef4:	e5851010 	str	r1, [r5, #16]
42002ef8:	e0800100 	add	r0, r0, r0, lsl #2
42002efc:	e51f1db0 	ldr	r1, [pc, #-3504]	; 42002154 <xTaskResumeAll+0x104>
42002f00:	e0810100 	add	r0, r1, r0, lsl #2
42002f04:	e2841004 	add	r1, r4, #4
42002f08:	eaffffeb 	b	42002ebc <xTaskRemoveFromEventList+0x40>

42002f0c <vTaskRemoveFromUnorderedEventList>:
42002f0c:	e92d4070 	push	{r4, r5, r6, lr}
42002f10:	e1a05000 	mov	r5, r0
42002f14:	e51f6dcc 	ldr	r6, [pc, #-3532]	; 42002150 <xTaskResumeAll+0x100>
42002f18:	e1a04001 	mov	r4, r1
42002f1c:	e5960030 	ldr	r0, [r6, #48]	; 0x30
42002f20:	e3500000 	cmp	r0, #0
42002f24:	051f0488 	ldreq	r0, [pc, #-1160]	; 42002aa4 <xTaskGetHandle+0xac>
42002f28:	03001bf2 	movweq	r1, #3058	; 0xbf2
42002f2c:	0bfff584 	bleq	42000544 <vAssertCalled>
42002f30:	e3840102 	orr	r0, r4, #-2147483648	; 0x80000000
42002f34:	e5850000 	str	r0, [r5]
42002f38:	e595400c 	ldr	r4, [r5, #12]
42002f3c:	e3540000 	cmp	r4, #0
42002f40:	051f04a4 	ldreq	r0, [pc, #-1188]	; 42002aa4 <xTaskGetHandle+0xac>
42002f44:	03001bfa 	movweq	r1, #3066	; 0xbfa
42002f48:	0bfff57d 	bleq	42000544 <vAssertCalled>
42002f4c:	e1a00005 	mov	r0, r5
42002f50:	ebfff52a 	bl	42000400 <uxListRemove>
42002f54:	e2840004 	add	r0, r4, #4
42002f58:	ebfff528 	bl	42000400 <uxListRemove>
42002f5c:	e594002c 	ldr	r0, [r4, #44]	; 0x2c
42002f60:	e3a05001 	mov	r5, #1
42002f64:	e5962010 	ldr	r2, [r6, #16]
42002f68:	e1821015 	orr	r1, r2, r5, lsl r0
42002f6c:	e5861010 	str	r1, [r6, #16]
42002f70:	e0800100 	add	r0, r0, r0, lsl #2
42002f74:	e51f1e28 	ldr	r1, [pc, #-3624]	; 42002154 <xTaskResumeAll+0x104>
42002f78:	e0810100 	add	r0, r1, r0, lsl #2
42002f7c:	e2841004 	add	r1, r4, #4
42002f80:	ebfff4fd 	bl	4200037c <vListInsertEnd>
42002f84:	e594002c 	ldr	r0, [r4, #44]	; 0x2c
42002f88:	e5961000 	ldr	r1, [r6]
42002f8c:	e591102c 	ldr	r1, [r1, #44]	; 0x2c
42002f90:	e1500001 	cmp	r0, r1
42002f94:	8586501c 	strhi	r5, [r6, #28]
42002f98:	e8bd8070 	pop	{r4, r5, r6, pc}

42002f9c <vTaskSetTimeOutState>:
42002f9c:	e92d4010 	push	{r4, lr}
42002fa0:	e1b04000 	movs	r4, r0
42002fa4:	051f0508 	ldreq	r0, [pc, #-1288]	; 42002aa4 <xTaskGetHandle+0xac>
42002fa8:	03a01ec1 	moveq	r1, #3088	; 0xc10
42002fac:	0bfff564 	bleq	42000544 <vAssertCalled>
42002fb0:	ebfff678 	bl	42000998 <vPortEnterCritical>
42002fb4:	e51f0e6c 	ldr	r0, [pc, #-3692]	; 42002150 <xTaskResumeAll+0x100>
42002fb8:	e5901020 	ldr	r1, [r0, #32]
42002fbc:	e5841000 	str	r1, [r4]
42002fc0:	e590000c 	ldr	r0, [r0, #12]
42002fc4:	e5840004 	str	r0, [r4, #4]
42002fc8:	e8bd4010 	pop	{r4, lr}
42002fcc:	eafff681 	b	420009d8 <vPortExitCritical>

42002fd0 <vTaskInternalSetTimeOutState>:
42002fd0:	e51f1e88 	ldr	r1, [pc, #-3720]	; 42002150 <xTaskResumeAll+0x100>
42002fd4:	e5912020 	ldr	r2, [r1, #32]
42002fd8:	e5802000 	str	r2, [r0]
42002fdc:	e591100c 	ldr	r1, [r1, #12]
42002fe0:	e5801004 	str	r1, [r0, #4]
42002fe4:	e12fff1e 	bx	lr

42002fe8 <xTaskCheckForTimeOut>:
42002fe8:	e92d41f0 	push	{r4, r5, r6, r7, r8, lr}
42002fec:	e1b05000 	movs	r5, r0
42002ff0:	051f0554 	ldreq	r0, [pc, #-1364]	; 42002aa4 <xTaskGetHandle+0xac>
42002ff4:	e1a04001 	mov	r4, r1
42002ff8:	03001c26 	movweq	r1, #3110	; 0xc26
42002ffc:	0bfff550 	bleq	42000544 <vAssertCalled>
42003000:	e3540000 	cmp	r4, #0
42003004:	051f0568 	ldreq	r0, [pc, #-1384]	; 42002aa4 <xTaskGetHandle+0xac>
42003008:	03001c27 	movweq	r1, #3111	; 0xc27
4200300c:	0bfff54c 	bleq	42000544 <vAssertCalled>
42003010:	ebfff660 	bl	42000998 <vPortEnterCritical>
42003014:	e51f6ecc 	ldr	r6, [pc, #-3788]	; 42002150 <xTaskResumeAll+0x100>
42003018:	e596000c 	ldr	r0, [r6, #12]
4200301c:	e5953004 	ldr	r3, [r5, #4]
42003020:	e5962000 	ldr	r2, [r6]
42003024:	e0401003 	sub	r1, r0, r3
42003028:	e3a07000 	mov	r7, #0
4200302c:	e5d22059 	ldrb	r2, [r2, #89]	; 0x59
42003030:	e3520000 	cmp	r2, #0
42003034:	15960000 	ldrne	r0, [r6]
42003038:	15c07059 	strbne	r7, [r0, #89]	; 0x59
4200303c:	1a00000b 	bne	42003070 <xTaskCheckForTimeOut+0x88>
42003040:	e5942000 	ldr	r2, [r4]
42003044:	e3720001 	cmn	r2, #1
42003048:	0a00000a 	beq	42003078 <xTaskCheckForTimeOut+0x90>
4200304c:	e595c000 	ldr	ip, [r5]
42003050:	e5966020 	ldr	r6, [r6, #32]
42003054:	e15c0006 	cmp	ip, r6
42003058:	0a000001 	beq	42003064 <xTaskCheckForTimeOut+0x7c>
4200305c:	e1530000 	cmp	r3, r0
42003060:	9a000002 	bls	42003070 <xTaskCheckForTimeOut+0x88>
42003064:	e1520001 	cmp	r2, r1
42003068:	95847000 	strls	r7, [r4]
4200306c:	8a000005 	bhi	42003088 <xTaskCheckForTimeOut+0xa0>
42003070:	e3a04001 	mov	r4, #1
42003074:	ea000000 	b	4200307c <xTaskCheckForTimeOut+0x94>
42003078:	e3a04000 	mov	r4, #0
4200307c:	ebfff655 	bl	420009d8 <vPortExitCritical>
42003080:	e1a00004 	mov	r0, r4
42003084:	e8bd81f0 	pop	{r4, r5, r6, r7, r8, pc}
42003088:	e0420001 	sub	r0, r2, r1
4200308c:	e5840000 	str	r0, [r4]
42003090:	e1a00005 	mov	r0, r5
42003094:	ebffffcd 	bl	42002fd0 <vTaskInternalSetTimeOutState>
42003098:	eafffff6 	b	42003078 <xTaskCheckForTimeOut+0x90>

4200309c <vTaskMissedYield>:
4200309c:	e51f1f54 	ldr	r1, [pc, #-3924]	; 42002150 <xTaskResumeAll+0x100>
420030a0:	e3a00001 	mov	r0, #1
420030a4:	e581001c 	str	r0, [r1, #28]
420030a8:	e12fff1e 	bx	lr

420030ac <uxTaskGetTaskNumber>:
420030ac:	e3500000 	cmp	r0, #0
420030b0:	15900044 	ldrne	r0, [r0, #68]	; 0x44
420030b4:	e12fff1e 	bx	lr

420030b8 <vTaskSetTaskNumber>:
420030b8:	e3500000 	cmp	r0, #0
420030bc:	15801044 	strne	r1, [r0, #68]	; 0x44
420030c0:	e12fff1e 	bx	lr

420030c4 <xTaskGetCurrentTaskHandle>:
420030c4:	e51f0f7c 	ldr	r0, [pc, #-3964]	; 42002150 <xTaskResumeAll+0x100>
420030c8:	e5900000 	ldr	r0, [r0]
420030cc:	e12fff1e 	bx	lr

420030d0 <xTaskGetSchedulerState>:
420030d0:	e51f0f88 	ldr	r0, [pc, #-3976]	; 42002150 <xTaskResumeAll+0x100>
420030d4:	e5901014 	ldr	r1, [r0, #20]
420030d8:	e3510000 	cmp	r1, #0
420030dc:	03a00001 	moveq	r0, #1
420030e0:	012fff1e 	bxeq	lr
420030e4:	e5900030 	ldr	r0, [r0, #48]	; 0x30
420030e8:	e3500000 	cmp	r0, #0
420030ec:	03a00002 	moveq	r0, #2
420030f0:	13a00000 	movne	r0, #0
420030f4:	e12fff1e 	bx	lr

420030f8 <xTaskPriorityInherit>:
420030f8:	e92d4070 	push	{r4, r5, r6, lr}
420030fc:	e1b04000 	movs	r4, r0
42003100:	e3a00000 	mov	r0, #0
42003104:	08bd8070 	popeq	{r4, r5, r6, pc}
42003108:	e594102c 	ldr	r1, [r4, #44]	; 0x2c
4200310c:	e51f5fc4 	ldr	r5, [pc, #-4036]	; 42002150 <xTaskResumeAll+0x100>
42003110:	e5952000 	ldr	r2, [r5]
42003114:	e592202c 	ldr	r2, [r2, #44]	; 0x2c
42003118:	e1510002 	cmp	r1, r2
4200311c:	2a000029 	bcs	420031c8 <xTaskPriorityInherit+0xd0>
42003120:	e5940018 	ldr	r0, [r4, #24]
42003124:	e3100102 	tst	r0, #-2147483648	; 0x80000000
42003128:	1a000003 	bne	4200313c <xTaskPriorityInherit+0x44>
4200312c:	e5950000 	ldr	r0, [r5]
42003130:	e590002c 	ldr	r0, [r0, #44]	; 0x2c
42003134:	e2600007 	rsb	r0, r0, #7
42003138:	e5840018 	str	r0, [r4, #24]
4200313c:	e594002c 	ldr	r0, [r4, #44]	; 0x2c
42003140:	e51f6ff4 	ldr	r6, [pc, #-4084]	; 42002154 <xTaskResumeAll+0x104>
42003144:	e5941014 	ldr	r1, [r4, #20]
42003148:	e0800100 	add	r0, r0, r0, lsl #2
4200314c:	e0860100 	add	r0, r6, r0, lsl #2
42003150:	e1510000 	cmp	r1, r0
42003154:	15950000 	ldrne	r0, [r5]
42003158:	1590002c 	ldrne	r0, [r0, #44]	; 0x2c
4200315c:	1584002c 	strne	r0, [r4, #44]	; 0x2c
42003160:	1a000016 	bne	420031c0 <xTaskPriorityInherit+0xc8>
42003164:	e2840004 	add	r0, r4, #4
42003168:	ebfff4a4 	bl	42000400 <uxListRemove>
4200316c:	e3500000 	cmp	r0, #0
42003170:	e3a01001 	mov	r1, #1
42003174:	1a000007 	bne	42003198 <xTaskPriorityInherit+0xa0>
42003178:	e594002c 	ldr	r0, [r4, #44]	; 0x2c
4200317c:	e0802100 	add	r2, r0, r0, lsl #2
42003180:	e7962102 	ldr	r2, [r6, r2, lsl #2]
42003184:	e3520000 	cmp	r2, #0
42003188:	1a000002 	bne	42003198 <xTaskPriorityInherit+0xa0>
4200318c:	e5952010 	ldr	r2, [r5, #16]
42003190:	e1c20011 	bic	r0, r2, r1, lsl r0
42003194:	e5850010 	str	r0, [r5, #16]
42003198:	e5950000 	ldr	r0, [r5]
4200319c:	e590002c 	ldr	r0, [r0, #44]	; 0x2c
420031a0:	e584002c 	str	r0, [r4, #44]	; 0x2c
420031a4:	e5952010 	ldr	r2, [r5, #16]
420031a8:	e1821011 	orr	r1, r2, r1, lsl r0
420031ac:	e5851010 	str	r1, [r5, #16]
420031b0:	e0800100 	add	r0, r0, r0, lsl #2
420031b4:	e2841004 	add	r1, r4, #4
420031b8:	e0860100 	add	r0, r6, r0, lsl #2
420031bc:	ebfff46e 	bl	4200037c <vListInsertEnd>
420031c0:	e3a00001 	mov	r0, #1
420031c4:	e8bd8070 	pop	{r4, r5, r6, pc}
420031c8:	e5941048 	ldr	r1, [r4, #72]	; 0x48
420031cc:	e5952000 	ldr	r2, [r5]
420031d0:	e592202c 	ldr	r2, [r2, #44]	; 0x2c
420031d4:	e1520001 	cmp	r2, r1
420031d8:	8afffff8 	bhi	420031c0 <xTaskPriorityInherit+0xc8>
420031dc:	e8bd8070 	pop	{r4, r5, r6, pc}

420031e0 <xTaskPriorityDisinherit>:
420031e0:	e92d4070 	push	{r4, r5, r6, lr}
420031e4:	e1b04000 	movs	r4, r0
420031e8:	e3a05000 	mov	r5, #0
420031ec:	0a00002e 	beq	420032ac <xTaskPriorityDisinherit+0xcc>
420031f0:	e59f645c 	ldr	r6, [pc, #1116]	; 42003654 <ulTaskNotifyTake+0x90>
420031f4:	e5960000 	ldr	r0, [r6]
420031f8:	e1540000 	cmp	r4, r0
420031fc:	151f0760 	ldrne	r0, [pc, #-1888]	; 42002aa4 <xTaskGetHandle+0xac>
42003200:	13001f3b 	movwne	r1, #3899	; 0xf3b
42003204:	1bfff4ce 	blne	42000544 <vAssertCalled>
42003208:	e594004c 	ldr	r0, [r4, #76]	; 0x4c
4200320c:	e3500000 	cmp	r0, #0
42003210:	051f0774 	ldreq	r0, [pc, #-1908]	; 42002aa4 <xTaskGetHandle+0xac>
42003214:	03001f3c 	movweq	r1, #3900	; 0xf3c
42003218:	0bfff4c9 	bleq	42000544 <vAssertCalled>
4200321c:	e594004c 	ldr	r0, [r4, #76]	; 0x4c
42003220:	e2400001 	sub	r0, r0, #1
42003224:	e584004c 	str	r0, [r4, #76]	; 0x4c
42003228:	e594102c 	ldr	r1, [r4, #44]	; 0x2c
4200322c:	e5942048 	ldr	r2, [r4, #72]	; 0x48
42003230:	e1510002 	cmp	r1, r2
42003234:	0a00001c 	beq	420032ac <xTaskPriorityDisinherit+0xcc>
42003238:	e3500000 	cmp	r0, #0
4200323c:	1a00001a 	bne	420032ac <xTaskPriorityDisinherit+0xcc>
42003240:	e2840004 	add	r0, r4, #4
42003244:	ebfff46d 	bl	42000400 <uxListRemove>
42003248:	e59f1408 	ldr	r1, [pc, #1032]	; 42003658 <ulTaskNotifyTake+0x94>
4200324c:	e3500000 	cmp	r0, #0
42003250:	e3a02001 	mov	r2, #1
42003254:	1a000007 	bne	42003278 <xTaskPriorityDisinherit+0x98>
42003258:	e594002c 	ldr	r0, [r4, #44]	; 0x2c
4200325c:	e0803100 	add	r3, r0, r0, lsl #2
42003260:	e7913103 	ldr	r3, [r1, r3, lsl #2]
42003264:	e3530000 	cmp	r3, #0
42003268:	1a000002 	bne	42003278 <xTaskPriorityDisinherit+0x98>
4200326c:	e5963010 	ldr	r3, [r6, #16]
42003270:	e1c30012 	bic	r0, r3, r2, lsl r0
42003274:	e5860010 	str	r0, [r6, #16]
42003278:	e5940048 	ldr	r0, [r4, #72]	; 0x48
4200327c:	e584002c 	str	r0, [r4, #44]	; 0x2c
42003280:	e2600007 	rsb	r0, r0, #7
42003284:	e5840018 	str	r0, [r4, #24]
42003288:	e594002c 	ldr	r0, [r4, #44]	; 0x2c
4200328c:	e5963010 	ldr	r3, [r6, #16]
42003290:	e1832012 	orr	r2, r3, r2, lsl r0
42003294:	e5862010 	str	r2, [r6, #16]
42003298:	e0800100 	add	r0, r0, r0, lsl #2
4200329c:	e0810100 	add	r0, r1, r0, lsl #2
420032a0:	e2841004 	add	r1, r4, #4
420032a4:	ebfff434 	bl	4200037c <vListInsertEnd>
420032a8:	e3a05001 	mov	r5, #1
420032ac:	e1a00005 	mov	r0, r5
420032b0:	e8bd8070 	pop	{r4, r5, r6, pc}

420032b4 <vTaskPriorityDisinheritAfterTimeout>:
420032b4:	e92d4070 	push	{r4, r5, r6, lr}
420032b8:	e1b04000 	movs	r4, r0
420032bc:	e1a05001 	mov	r5, r1
420032c0:	08bd8070 	popeq	{r4, r5, r6, pc}
420032c4:	e594004c 	ldr	r0, [r4, #76]	; 0x4c
420032c8:	e3500000 	cmp	r0, #0
420032cc:	051f0830 	ldreq	r0, [pc, #-2096]	; 42002aa4 <xTaskGetHandle+0xac>
420032d0:	03001f8a 	movweq	r1, #3978	; 0xf8a
420032d4:	0bfff49a 	bleq	42000544 <vAssertCalled>
420032d8:	e5940048 	ldr	r0, [r4, #72]	; 0x48
420032dc:	e1500005 	cmp	r0, r5
420032e0:	21a05000 	movcs	r5, r0
420032e4:	e594002c 	ldr	r0, [r4, #44]	; 0x2c
420032e8:	e1500005 	cmp	r0, r5
420032ec:	08bd8070 	popeq	{r4, r5, r6, pc}
420032f0:	e594004c 	ldr	r0, [r4, #76]	; 0x4c
420032f4:	e3500001 	cmp	r0, #1
420032f8:	18bd8070 	popne	{r4, r5, r6, pc}
420032fc:	e59f6350 	ldr	r6, [pc, #848]	; 42003654 <ulTaskNotifyTake+0x90>
42003300:	e5960000 	ldr	r0, [r6]
42003304:	e1540000 	cmp	r4, r0
42003308:	051f086c 	ldreq	r0, [pc, #-2156]	; 42002aa4 <xTaskGetHandle+0xac>
4200330c:	03001fa5 	movweq	r1, #4005	; 0xfa5
42003310:	0bfff48b 	bleq	42000544 <vAssertCalled>
42003314:	e594002c 	ldr	r0, [r4, #44]	; 0x2c
42003318:	e584502c 	str	r5, [r4, #44]	; 0x2c
4200331c:	e5941018 	ldr	r1, [r4, #24]
42003320:	e0800100 	add	r0, r0, r0, lsl #2
42003324:	e3110102 	tst	r1, #-2147483648	; 0x80000000
42003328:	02651007 	rsbeq	r1, r5, #7
4200332c:	e59f5324 	ldr	r5, [pc, #804]	; 42003658 <ulTaskNotifyTake+0x94>
42003330:	05841018 	streq	r1, [r4, #24]
42003334:	e5941014 	ldr	r1, [r4, #20]
42003338:	e0850100 	add	r0, r5, r0, lsl #2
4200333c:	e1510000 	cmp	r1, r0
42003340:	18bd8070 	popne	{r4, r5, r6, pc}
42003344:	e2840004 	add	r0, r4, #4
42003348:	ebfff42c 	bl	42000400 <uxListRemove>
4200334c:	e3500000 	cmp	r0, #0
42003350:	e3a01001 	mov	r1, #1
42003354:	1a000007 	bne	42003378 <vTaskPriorityDisinheritAfterTimeout+0xc4>
42003358:	e594002c 	ldr	r0, [r4, #44]	; 0x2c
4200335c:	e0802100 	add	r2, r0, r0, lsl #2
42003360:	e7952102 	ldr	r2, [r5, r2, lsl #2]
42003364:	e3520000 	cmp	r2, #0
42003368:	1a000002 	bne	42003378 <vTaskPriorityDisinheritAfterTimeout+0xc4>
4200336c:	e5962010 	ldr	r2, [r6, #16]
42003370:	e1c20011 	bic	r0, r2, r1, lsl r0
42003374:	e5860010 	str	r0, [r6, #16]
42003378:	e594002c 	ldr	r0, [r4, #44]	; 0x2c
4200337c:	e5962010 	ldr	r2, [r6, #16]
42003380:	e1821011 	orr	r1, r2, r1, lsl r0
42003384:	e5861010 	str	r1, [r6, #16]
42003388:	e0800100 	add	r0, r0, r0, lsl #2
4200338c:	e2841004 	add	r1, r4, #4
42003390:	e0850100 	add	r0, r5, r0, lsl #2
42003394:	e8bd4070 	pop	{r4, r5, r6, lr}
42003398:	eafff3f7 	b	4200037c <vListInsertEnd>

4200339c <vTaskList>:
4200339c:	e92d41fc 	push	{r2, r3, r4, r5, r6, r7, r8, lr}
420033a0:	e1a07000 	mov	r7, r0
420033a4:	e3a00000 	mov	r0, #0
420033a8:	e5c70000 	strb	r0, [r7]
420033ac:	e59f02a0 	ldr	r0, [pc, #672]	; 42003654 <ulTaskNotifyTake+0x90>
420033b0:	e5904008 	ldr	r4, [r0, #8]
420033b4:	e5900008 	ldr	r0, [r0, #8]
420033b8:	e0800180 	add	r0, r0, r0, lsl #3
420033bc:	e1a00100 	lsl	r0, r0, #2
420033c0:	ebfff37d 	bl	420001bc <_maybe_terminate_alloc>
420033c4:	e1b06000 	movs	r6, r0
420033c8:	0a000031 	beq	42003494 <vTaskList+0xf8>
420033cc:	e3a02000 	mov	r2, #0
420033d0:	e1a01004 	mov	r1, r4
420033d4:	ebfffe10 	bl	42002c1c <uxTaskGetSystemState>
420033d8:	e1a08000 	mov	r8, r0
420033dc:	e3a05000 	mov	r5, #0
420033e0:	ea000027 	b	42003484 <vTaskList+0xe8>
420033e4:	e0850185 	add	r0, r5, r5, lsl #3
420033e8:	e0860100 	add	r0, r6, r0, lsl #2
420033ec:	e5d0100c 	ldrb	r1, [r0, #12]
420033f0:	e3510005 	cmp	r1, #5
420033f4:	308ff101 	addcc	pc, pc, r1, lsl #2
420033f8:	ea00000e 	b	42003438 <vTaskList+0x9c>
420033fc:	ea000003 	b	42003410 <vTaskList+0x74>
42003400:	ea000004 	b	42003418 <vTaskList+0x7c>
42003404:	ea000005 	b	42003420 <vTaskList+0x84>
42003408:	ea000006 	b	42003428 <vTaskList+0x8c>
4200340c:	ea000007 	b	42003430 <vTaskList+0x94>
42003410:	e3a04058 	mov	r4, #88	; 0x58
42003414:	ea000008 	b	4200343c <vTaskList+0xa0>
42003418:	e3a04052 	mov	r4, #82	; 0x52
4200341c:	ea000006 	b	4200343c <vTaskList+0xa0>
42003420:	e3a04042 	mov	r4, #66	; 0x42
42003424:	ea000004 	b	4200343c <vTaskList+0xa0>
42003428:	e3a04053 	mov	r4, #83	; 0x53
4200342c:	ea000002 	b	4200343c <vTaskList+0xa0>
42003430:	e3a04044 	mov	r4, #68	; 0x44
42003434:	ea000000 	b	4200343c <vTaskList+0xa0>
42003438:	e3a04000 	mov	r4, #0
4200343c:	e5901004 	ldr	r1, [r0, #4]
42003440:	e1a00007 	mov	r0, r7
42003444:	eb0001e5 	bl	42003be0 <prvWriteNameToBuffer>
42003448:	e1a07000 	mov	r7, r0
4200344c:	e0850185 	add	r0, r5, r5, lsl #3
42003450:	e0860100 	add	r0, r6, r0, lsl #2
42003454:	e1d012b0 	ldrh	r1, [r0, #32]
42003458:	e5902008 	ldr	r2, [r0, #8]
4200345c:	e88d0006 	stm	sp, {r1, r2}
42003460:	e1a02004 	mov	r2, r4
42003464:	e5903010 	ldr	r3, [r0, #16]
42003468:	e28f1f7b 	add	r1, pc, #492	; 0x1ec
4200346c:	e1a00007 	mov	r0, r7
42003470:	fa000489 	blx	4200469c <__2sprintf>
42003474:	e1a00007 	mov	r0, r7
42003478:	fb00054e 	blx	420049ba <strlen>
4200347c:	e0877000 	add	r7, r7, r0
42003480:	e2855001 	add	r5, r5, #1
42003484:	e1550008 	cmp	r5, r8
42003488:	3affffd5 	bcc	420033e4 <vTaskList+0x48>
4200348c:	e1a00006 	mov	r0, r6
42003490:	ebfff38f 	bl	420002d4 <vPortFree>
42003494:	e8bd81fc 	pop	{r2, r3, r4, r5, r6, r7, r8, pc}

42003498 <vTaskGetRunTimeStats>:
42003498:	e92d43f8 	push	{r3, r4, r5, r6, r7, r8, r9, lr}
4200349c:	e1a07000 	mov	r7, r0
420034a0:	e3a00000 	mov	r0, #0
420034a4:	e5c70000 	strb	r0, [r7]
420034a8:	e59f01a4 	ldr	r0, [pc, #420]	; 42003654 <ulTaskNotifyTake+0x90>
420034ac:	e5904008 	ldr	r4, [r0, #8]
420034b0:	e5900008 	ldr	r0, [r0, #8]
420034b4:	e0800180 	add	r0, r0, r0, lsl #3
420034b8:	e1a00100 	lsl	r0, r0, #2
420034bc:	ebfff33e 	bl	420001bc <_maybe_terminate_alloc>
420034c0:	e1b05000 	movs	r5, r0
420034c4:	0a00002a 	beq	42003574 <vTaskGetRunTimeStats+0xdc>
420034c8:	e1a0200d 	mov	r2, sp
420034cc:	e1a01004 	mov	r1, r4
420034d0:	ebfffdd1 	bl	42002c1c <uxTaskGetSystemState>
420034d4:	e1a09000 	mov	r9, r0
420034d8:	e59d0000 	ldr	r0, [sp]
420034dc:	e3a01064 	mov	r1, #100	; 0x64
420034e0:	eb00087d 	bl	420056dc <__aeabi_uidiv>
420034e4:	e3500000 	cmp	r0, #0
420034e8:	e58d0000 	str	r0, [sp]
420034ec:	13a04000 	movne	r4, #0
420034f0:	0a00001d 	beq	4200356c <vTaskGetRunTimeStats+0xd4>
420034f4:	ea00001a 	b	42003564 <vTaskGetRunTimeStats+0xcc>
420034f8:	e0840184 	add	r0, r4, r4, lsl #3
420034fc:	e59d1000 	ldr	r1, [sp]
42003500:	e0856100 	add	r6, r5, r0, lsl #2
42003504:	e5960018 	ldr	r0, [r6, #24]
42003508:	eb000873 	bl	420056dc <__aeabi_uidiv>
4200350c:	e5961004 	ldr	r1, [r6, #4]
42003510:	e1a08000 	mov	r8, r0
42003514:	e1a00007 	mov	r0, r7
42003518:	eb0001b0 	bl	42003be0 <prvWriteNameToBuffer>
4200351c:	e1a06000 	mov	r6, r0
42003520:	e0840184 	add	r0, r4, r4, lsl #3
42003524:	e3580000 	cmp	r8, #0
42003528:	e0850100 	add	r0, r5, r0, lsl #2
4200352c:	e5902018 	ldr	r2, [r0, #24]
42003530:	0a000004 	beq	42003548 <vTaskGetRunTimeStats+0xb0>
42003534:	e1a03008 	mov	r3, r8
42003538:	e28f1f4b 	add	r1, pc, #300	; 0x12c
4200353c:	e1a00006 	mov	r0, r6
42003540:	fa000455 	blx	4200469c <__2sprintf>
42003544:	ea000002 	b	42003554 <vTaskGetRunTimeStats+0xbc>
42003548:	e28f1f4a 	add	r1, pc, #296	; 0x128
4200354c:	e1a00006 	mov	r0, r6
42003550:	fa000451 	blx	4200469c <__2sprintf>
42003554:	e1a00006 	mov	r0, r6
42003558:	fb000516 	blx	420049ba <strlen>
4200355c:	e0807006 	add	r7, r0, r6
42003560:	e2844001 	add	r4, r4, #1
42003564:	e1590004 	cmp	r9, r4
42003568:	8affffe2 	bhi	420034f8 <vTaskGetRunTimeStats+0x60>
4200356c:	e1a00005 	mov	r0, r5
42003570:	ebfff357 	bl	420002d4 <vPortFree>
42003574:	e8bd83f8 	pop	{r3, r4, r5, r6, r7, r8, r9, pc}

42003578 <uxTaskResetEventItemValue>:
42003578:	e59f10d4 	ldr	r1, [pc, #212]	; 42003654 <ulTaskNotifyTake+0x90>
4200357c:	e5910000 	ldr	r0, [r1]
42003580:	e5912000 	ldr	r2, [r1]
42003584:	e5900018 	ldr	r0, [r0, #24]
42003588:	e592202c 	ldr	r2, [r2, #44]	; 0x2c
4200358c:	e5911000 	ldr	r1, [r1]
42003590:	e2622007 	rsb	r2, r2, #7
42003594:	e5812018 	str	r2, [r1, #24]
42003598:	e12fff1e 	bx	lr

4200359c <pvTaskIncrementMutexHeldCount>:
4200359c:	e59f10b0 	ldr	r1, [pc, #176]	; 42003654 <ulTaskNotifyTake+0x90>
420035a0:	e5910000 	ldr	r0, [r1]
420035a4:	e3500000 	cmp	r0, #0
420035a8:	0a000003 	beq	420035bc <pvTaskIncrementMutexHeldCount+0x20>
420035ac:	e5910000 	ldr	r0, [r1]
420035b0:	e590204c 	ldr	r2, [r0, #76]	; 0x4c
420035b4:	e2822001 	add	r2, r2, #1
420035b8:	e580204c 	str	r2, [r0, #76]	; 0x4c
420035bc:	e5910000 	ldr	r0, [r1]
420035c0:	e12fff1e 	bx	lr

420035c4 <ulTaskNotifyTake>:
420035c4:	e92d4070 	push	{r4, r5, r6, lr}
420035c8:	e1a05000 	mov	r5, r0
420035cc:	e1a04001 	mov	r4, r1
420035d0:	ebfff4f0 	bl	42000998 <vPortEnterCritical>
420035d4:	e59f6078 	ldr	r6, [pc, #120]	; 42003654 <ulTaskNotifyTake+0x90>
420035d8:	e5960000 	ldr	r0, [r6]
420035dc:	e5900054 	ldr	r0, [r0, #84]	; 0x54
420035e0:	e3500000 	cmp	r0, #0
420035e4:	1a000008 	bne	4200360c <ulTaskNotifyTake+0x48>
420035e8:	e5961000 	ldr	r1, [r6]
420035ec:	e3a00001 	mov	r0, #1
420035f0:	e5c10058 	strb	r0, [r1, #88]	; 0x58
420035f4:	e3540000 	cmp	r4, #0
420035f8:	0a000003 	beq	4200360c <ulTaskNotifyTake+0x48>
420035fc:	e3a01001 	mov	r1, #1
42003600:	e1a00004 	mov	r0, r4
42003604:	ebfffada 	bl	42002174 <prvAddCurrentTaskToDelayedList>
42003608:	ef000000 	svc	0x00000000
4200360c:	ebfff4f1 	bl	420009d8 <vPortExitCritical>
42003610:	ebfff4e0 	bl	42000998 <vPortEnterCritical>
42003614:	e5960000 	ldr	r0, [r6]
42003618:	e5904054 	ldr	r4, [r0, #84]	; 0x54
4200361c:	e3a00000 	mov	r0, #0
42003620:	e3540000 	cmp	r4, #0
42003624:	0a000005 	beq	42003640 <ulTaskNotifyTake+0x7c>
42003628:	e3550000 	cmp	r5, #0
4200362c:	15961000 	ldrne	r1, [r6]
42003630:	15810054 	strne	r0, [r1, #84]	; 0x54
42003634:	02441001 	subeq	r1, r4, #1
42003638:	05962000 	ldreq	r2, [r6]
4200363c:	05821054 	streq	r1, [r2, #84]	; 0x54
42003640:	e5961000 	ldr	r1, [r6]
42003644:	e5c10058 	strb	r0, [r1, #88]	; 0x58
42003648:	ebfff4e2 	bl	420009d8 <vPortExitCritical>
4200364c:	e1a00004 	mov	r0, r4
42003650:	e8bd8070 	pop	{r4, r5, r6, pc}
42003654:	42005a04 	andmi	r5, r0, #4, 20	; 0x4000
42003658:	4201cf18 	andmi	ip, r1, #24, 30	; 0x60
4200365c:	09632509 	stmdbeq	r3!, {r0, r3, r8, sl, sp}^
42003660:	25097525 	strcs	r7, [r9, #-1317]	; 0x525
42003664:	75250975 	strvc	r0, [r5, #-2421]!	; 0x975
42003668:	00000a0d 	andeq	r0, r0, sp, lsl #20
4200366c:	09752509 	ldmdbeq	r5!, {r0, r3, r8, sl, sp}^
42003670:	25752509 	ldrbcs	r2, [r5, #-1289]!	; 0x509
42003674:	000a0d25 	andeq	r0, sl, r5, lsr #26
42003678:	09752509 	ldmdbeq	r5!, {r0, r3, r8, sl, sp}^
4200367c:	25313c09 	ldrcs	r3, [r1, #-3081]!	; 0xc09
42003680:	000a0d25 	andeq	r0, sl, r5, lsr #26

42003684 <xTaskNotifyWait>:
42003684:	e92d41f0 	push	{r4, r5, r6, r7, r8, lr}
42003688:	e1a06000 	mov	r6, r0
4200368c:	e1a07001 	mov	r7, r1
42003690:	e1a04002 	mov	r4, r2
42003694:	e1a05003 	mov	r5, r3
42003698:	ebfff4be 	bl	42000998 <vPortEnterCritical>
4200369c:	e51f8050 	ldr	r8, [pc, #-80]	; 42003654 <ulTaskNotifyTake+0x90>
420036a0:	e5980000 	ldr	r0, [r8]
420036a4:	e5d00058 	ldrb	r0, [r0, #88]	; 0x58
420036a8:	e3500002 	cmp	r0, #2
420036ac:	0a00000c 	beq	420036e4 <xTaskNotifyWait+0x60>
420036b0:	e5980000 	ldr	r0, [r8]
420036b4:	e5901054 	ldr	r1, [r0, #84]	; 0x54
420036b8:	e1c11006 	bic	r1, r1, r6
420036bc:	e5801054 	str	r1, [r0, #84]	; 0x54
420036c0:	e3a00001 	mov	r0, #1
420036c4:	e5981000 	ldr	r1, [r8]
420036c8:	e5c10058 	strb	r0, [r1, #88]	; 0x58
420036cc:	e3550000 	cmp	r5, #0
420036d0:	0a000003 	beq	420036e4 <xTaskNotifyWait+0x60>
420036d4:	e3a01001 	mov	r1, #1
420036d8:	e1a00005 	mov	r0, r5
420036dc:	ebfffaa4 	bl	42002174 <prvAddCurrentTaskToDelayedList>
420036e0:	ef000000 	svc	0x00000000
420036e4:	ebfff4bb 	bl	420009d8 <vPortExitCritical>
420036e8:	ebfff4aa 	bl	42000998 <vPortEnterCritical>
420036ec:	e3540000 	cmp	r4, #0
420036f0:	15980000 	ldrne	r0, [r8]
420036f4:	15900054 	ldrne	r0, [r0, #84]	; 0x54
420036f8:	15840000 	strne	r0, [r4]
420036fc:	e5980000 	ldr	r0, [r8]
42003700:	e5d00058 	ldrb	r0, [r0, #88]	; 0x58
42003704:	e3500002 	cmp	r0, #2
42003708:	13a04000 	movne	r4, #0
4200370c:	1a000004 	bne	42003724 <xTaskNotifyWait+0xa0>
42003710:	e5980000 	ldr	r0, [r8]
42003714:	e5901054 	ldr	r1, [r0, #84]	; 0x54
42003718:	e1c11007 	bic	r1, r1, r7
4200371c:	e5801054 	str	r1, [r0, #84]	; 0x54
42003720:	e3a04001 	mov	r4, #1
42003724:	e5981000 	ldr	r1, [r8]
42003728:	e3a00000 	mov	r0, #0
4200372c:	e5c10058 	strb	r0, [r1, #88]	; 0x58
42003730:	ebfff4a8 	bl	420009d8 <vPortExitCritical>
42003734:	e1a00004 	mov	r0, r4
42003738:	e8bd81f0 	pop	{r4, r5, r6, r7, r8, pc}

4200373c <xTaskGenericNotify>:
4200373c:	e92d41f0 	push	{r4, r5, r6, r7, r8, lr}
42003740:	e1b04000 	movs	r4, r0
42003744:	051f0ca8 	ldreq	r0, [pc, #-3240]	; 42002aa4 <xTaskGetHandle+0xac>
42003748:	e1a05001 	mov	r5, r1
4200374c:	e1a08002 	mov	r8, r2
42003750:	e1a06003 	mov	r6, r3
42003754:	e3a07001 	mov	r7, #1
42003758:	030111d9 	movweq	r1, #4569	; 0x11d9
4200375c:	0bfff378 	bleq	42000544 <vAssertCalled>
42003760:	ebfff48c 	bl	42000998 <vPortEnterCritical>
42003764:	e3560000 	cmp	r6, #0
42003768:	15940054 	ldrne	r0, [r4, #84]	; 0x54
4200376c:	15860000 	strne	r0, [r6]
42003770:	e5d40058 	ldrb	r0, [r4, #88]	; 0x58
42003774:	e3a01002 	mov	r1, #2
42003778:	e5c41058 	strb	r1, [r4, #88]	; 0x58
4200377c:	e3580005 	cmp	r8, #5
42003780:	308ff108 	addcc	pc, pc, r8, lsl #2
42003784:	ea00000f 	b	420037c8 <xTaskGenericNotify+0x8c>
42003788:	ea00000e 	b	420037c8 <xTaskGenericNotify+0x8c>
4200378c:	ea000002 	b	4200379c <xTaskGenericNotify+0x60>
42003790:	ea000004 	b	420037a8 <xTaskGenericNotify+0x6c>
42003794:	ea00000a 	b	420037c4 <xTaskGenericNotify+0x88>
42003798:	ea000006 	b	420037b8 <xTaskGenericNotify+0x7c>
4200379c:	e5941054 	ldr	r1, [r4, #84]	; 0x54
420037a0:	e1811005 	orr	r1, r1, r5
420037a4:	ea000001 	b	420037b0 <xTaskGenericNotify+0x74>
420037a8:	e5941054 	ldr	r1, [r4, #84]	; 0x54
420037ac:	e2811001 	add	r1, r1, #1
420037b0:	e5841054 	str	r1, [r4, #84]	; 0x54
420037b4:	ea000003 	b	420037c8 <xTaskGenericNotify+0x8c>
420037b8:	e3500002 	cmp	r0, #2
420037bc:	03a07000 	moveq	r7, #0
420037c0:	0a000019 	beq	4200382c <xTaskGenericNotify+0xf0>
420037c4:	e5845054 	str	r5, [r4, #84]	; 0x54
420037c8:	e3500001 	cmp	r0, #1
420037cc:	1a000016 	bne	4200382c <xTaskGenericNotify+0xf0>
420037d0:	e2840004 	add	r0, r4, #4
420037d4:	ebfff309 	bl	42000400 <uxListRemove>
420037d8:	e51f518c 	ldr	r5, [pc, #-396]	; 42003654 <ulTaskNotifyTake+0x90>
420037dc:	e3a01001 	mov	r1, #1
420037e0:	e594002c 	ldr	r0, [r4, #44]	; 0x2c
420037e4:	e5952010 	ldr	r2, [r5, #16]
420037e8:	e1821011 	orr	r1, r2, r1, lsl r0
420037ec:	e5851010 	str	r1, [r5, #16]
420037f0:	e0800100 	add	r0, r0, r0, lsl #2
420037f4:	e51f11a4 	ldr	r1, [pc, #-420]	; 42003658 <ulTaskNotifyTake+0x94>
420037f8:	e0810100 	add	r0, r1, r0, lsl #2
420037fc:	e2841004 	add	r1, r4, #4
42003800:	ebfff2dd 	bl	4200037c <vListInsertEnd>
42003804:	e5940028 	ldr	r0, [r4, #40]	; 0x28
42003808:	e3500000 	cmp	r0, #0
4200380c:	151f0d70 	ldrne	r0, [pc, #-3440]	; 42002aa4 <xTaskGetHandle+0xac>
42003810:	13011211 	movwne	r1, #4625	; 0x1211
42003814:	1bfff34a 	blne	42000544 <vAssertCalled>
42003818:	e594002c 	ldr	r0, [r4, #44]	; 0x2c
4200381c:	e5951000 	ldr	r1, [r5]
42003820:	e591102c 	ldr	r1, [r1, #44]	; 0x2c
42003824:	e1500001 	cmp	r0, r1
42003828:	8f000000 	svchi	0x00000000
4200382c:	ebfff469 	bl	420009d8 <vPortExitCritical>
42003830:	e1a00007 	mov	r0, r7
42003834:	e8bd81f0 	pop	{r4, r5, r6, r7, r8, pc}

42003838 <xTaskGenericNotifyFromISR>:
42003838:	e92d47f0 	push	{r4, r5, r6, r7, r8, r9, sl, lr}
4200383c:	e1b04000 	movs	r4, r0
42003840:	051f0da4 	ldreq	r0, [pc, #-3492]	; 42002aa4 <xTaskGetHandle+0xac>
42003844:	e1a05001 	mov	r5, r1
42003848:	e59d8020 	ldr	r8, [sp, #32]
4200384c:	e1a09002 	mov	r9, r2
42003850:	e1a06003 	mov	r6, r3
42003854:	e3a07001 	mov	r7, #1
42003858:	03011244 	movweq	r1, #4676	; 0x1244
4200385c:	0bfff338 	bleq	42000544 <vAssertCalled>
42003860:	ebfff49a 	bl	42000ad0 <vPortValidateInterruptPriority>
42003864:	ebfff3f0 	bl	4200082c <ulPortSetInterruptMask>
42003868:	e3560000 	cmp	r6, #0
4200386c:	e1a0a000 	mov	sl, r0
42003870:	15940054 	ldrne	r0, [r4, #84]	; 0x54
42003874:	15860000 	strne	r0, [r6]
42003878:	e5d40058 	ldrb	r0, [r4, #88]	; 0x58
4200387c:	e3a01002 	mov	r1, #2
42003880:	e5c41058 	strb	r1, [r4, #88]	; 0x58
42003884:	e3590005 	cmp	r9, #5
42003888:	308ff109 	addcc	pc, pc, r9, lsl #2
4200388c:	ea00000f 	b	420038d0 <xTaskGenericNotifyFromISR+0x98>
42003890:	ea00000e 	b	420038d0 <xTaskGenericNotifyFromISR+0x98>
42003894:	ea000002 	b	420038a4 <xTaskGenericNotifyFromISR+0x6c>
42003898:	ea000004 	b	420038b0 <xTaskGenericNotifyFromISR+0x78>
4200389c:	ea00000a 	b	420038cc <xTaskGenericNotifyFromISR+0x94>
420038a0:	ea000006 	b	420038c0 <xTaskGenericNotifyFromISR+0x88>
420038a4:	e5941054 	ldr	r1, [r4, #84]	; 0x54
420038a8:	e1811005 	orr	r1, r1, r5
420038ac:	ea000001 	b	420038b8 <xTaskGenericNotifyFromISR+0x80>
420038b0:	e5941054 	ldr	r1, [r4, #84]	; 0x54
420038b4:	e2811001 	add	r1, r1, #1
420038b8:	e5841054 	str	r1, [r4, #84]	; 0x54
420038bc:	ea000003 	b	420038d0 <xTaskGenericNotifyFromISR+0x98>
420038c0:	e3500002 	cmp	r0, #2
420038c4:	03a07000 	moveq	r7, #0
420038c8:	0a000002 	beq	420038d8 <xTaskGenericNotifyFromISR+0xa0>
420038cc:	e5845054 	str	r5, [r4, #84]	; 0x54
420038d0:	e3500001 	cmp	r0, #1
420038d4:	0a000003 	beq	420038e8 <xTaskGenericNotifyFromISR+0xb0>
420038d8:	e1a0000a 	mov	r0, sl
420038dc:	ebfff473 	bl	42000ab0 <vPortClearInterruptMask>
420038e0:	e1a00007 	mov	r0, r7
420038e4:	e8bd87f0 	pop	{r4, r5, r6, r7, r8, r9, sl, pc}
420038e8:	e5940028 	ldr	r0, [r4, #40]	; 0x28
420038ec:	e3500000 	cmp	r0, #0
420038f0:	151f0e54 	ldrne	r0, [pc, #-3668]	; 42002aa4 <xTaskGetHandle+0xac>
420038f4:	1301128b 	movwne	r1, #4747	; 0x128b
420038f8:	1bfff311 	blne	42000544 <vAssertCalled>
420038fc:	e51f52b0 	ldr	r5, [pc, #-688]	; 42003654 <ulTaskNotifyTake+0x90>
42003900:	e5950030 	ldr	r0, [r5, #48]	; 0x30
42003904:	e3a06001 	mov	r6, #1
42003908:	e3500000 	cmp	r0, #0
4200390c:	159f0300 	ldrne	r0, [pc, #768]	; 42003c14 <prvWriteNameToBuffer+0x34>
42003910:	12841018 	addne	r1, r4, #24
42003914:	0a000009 	beq	42003940 <xTaskGenericNotifyFromISR+0x108>
42003918:	ebfff297 	bl	4200037c <vListInsertEnd>
4200391c:	e594002c 	ldr	r0, [r4, #44]	; 0x2c
42003920:	e5951000 	ldr	r1, [r5]
42003924:	e591102c 	ldr	r1, [r1, #44]	; 0x2c
42003928:	e1500001 	cmp	r0, r1
4200392c:	9affffe9 	bls	420038d8 <xTaskGenericNotifyFromISR+0xa0>
42003930:	e3580000 	cmp	r8, #0
42003934:	15886000 	strne	r6, [r8]
42003938:	0585601c 	streq	r6, [r5, #28]
4200393c:	eaffffe5 	b	420038d8 <xTaskGenericNotifyFromISR+0xa0>
42003940:	e2840004 	add	r0, r4, #4
42003944:	ebfff2ad 	bl	42000400 <uxListRemove>
42003948:	e594002c 	ldr	r0, [r4, #44]	; 0x2c
4200394c:	e5952010 	ldr	r2, [r5, #16]
42003950:	e1821016 	orr	r1, r2, r6, lsl r0
42003954:	e5851010 	str	r1, [r5, #16]
42003958:	e0800100 	add	r0, r0, r0, lsl #2
4200395c:	e51f130c 	ldr	r1, [pc, #-780]	; 42003658 <ulTaskNotifyTake+0x94>
42003960:	e0810100 	add	r0, r1, r0, lsl #2
42003964:	e2841004 	add	r1, r4, #4
42003968:	eaffffea 	b	42003918 <xTaskGenericNotifyFromISR+0xe0>

4200396c <vTaskNotifyGiveFromISR>:
4200396c:	e92d41f0 	push	{r4, r5, r6, r7, r8, lr}
42003970:	e1b04000 	movs	r4, r0
42003974:	051f0ed8 	ldreq	r0, [pc, #-3800]	; 42002aa4 <xTaskGetHandle+0xac>
42003978:	e1a05001 	mov	r5, r1
4200397c:	030112bf 	movweq	r1, #4799	; 0x12bf
42003980:	0bfff2ef 	bleq	42000544 <vAssertCalled>
42003984:	ebfff451 	bl	42000ad0 <vPortValidateInterruptPriority>
42003988:	ebfff3a7 	bl	4200082c <ulPortSetInterruptMask>
4200398c:	e1a06000 	mov	r6, r0
42003990:	e5d40058 	ldrb	r0, [r4, #88]	; 0x58
42003994:	e3a01002 	mov	r1, #2
42003998:	e5c41058 	strb	r1, [r4, #88]	; 0x58
4200399c:	e5941054 	ldr	r1, [r4, #84]	; 0x54
420039a0:	e2811001 	add	r1, r1, #1
420039a4:	e5841054 	str	r1, [r4, #84]	; 0x54
420039a8:	e3500001 	cmp	r0, #1
420039ac:	0a000002 	beq	420039bc <vTaskNotifyGiveFromISR+0x50>
420039b0:	e1a00006 	mov	r0, r6
420039b4:	e8bd41f0 	pop	{r4, r5, r6, r7, r8, lr}
420039b8:	eafff43c 	b	42000ab0 <vPortClearInterruptMask>
420039bc:	e5940028 	ldr	r0, [r4, #40]	; 0x28
420039c0:	e3500000 	cmp	r0, #0
420039c4:	151f0f28 	ldrne	r0, [pc, #-3880]	; 42002aa4 <xTaskGetHandle+0xac>
420039c8:	130112e5 	movwne	r1, #4837	; 0x12e5
420039cc:	1bfff2dc 	blne	42000544 <vAssertCalled>
420039d0:	e51f7384 	ldr	r7, [pc, #-900]	; 42003654 <ulTaskNotifyTake+0x90>
420039d4:	e5970030 	ldr	r0, [r7, #48]	; 0x30
420039d8:	e3a08001 	mov	r8, #1
420039dc:	e3500000 	cmp	r0, #0
420039e0:	159f022c 	ldrne	r0, [pc, #556]	; 42003c14 <prvWriteNameToBuffer+0x34>
420039e4:	12841018 	addne	r1, r4, #24
420039e8:	0a000009 	beq	42003a14 <vTaskNotifyGiveFromISR+0xa8>
420039ec:	ebfff262 	bl	4200037c <vListInsertEnd>
420039f0:	e594002c 	ldr	r0, [r4, #44]	; 0x2c
420039f4:	e5971000 	ldr	r1, [r7]
420039f8:	e591102c 	ldr	r1, [r1, #44]	; 0x2c
420039fc:	e1500001 	cmp	r0, r1
42003a00:	9affffea 	bls	420039b0 <vTaskNotifyGiveFromISR+0x44>
42003a04:	e3550000 	cmp	r5, #0
42003a08:	15858000 	strne	r8, [r5]
42003a0c:	0587801c 	streq	r8, [r7, #28]
42003a10:	eaffffe6 	b	420039b0 <vTaskNotifyGiveFromISR+0x44>
42003a14:	e2840004 	add	r0, r4, #4
42003a18:	ebfff278 	bl	42000400 <uxListRemove>
42003a1c:	e594002c 	ldr	r0, [r4, #44]	; 0x2c
42003a20:	e5972010 	ldr	r2, [r7, #16]
42003a24:	e1821018 	orr	r1, r2, r8, lsl r0
42003a28:	e5871010 	str	r1, [r7, #16]
42003a2c:	e0800100 	add	r0, r0, r0, lsl #2
42003a30:	e51f13e0 	ldr	r1, [pc, #-992]	; 42003658 <ulTaskNotifyTake+0x94>
42003a34:	e0810100 	add	r0, r1, r0, lsl #2
42003a38:	e2841004 	add	r1, r4, #4
42003a3c:	eaffffea 	b	420039ec <vTaskNotifyGiveFromISR+0x80>

42003a40 <xTaskNotifyStateClear>:
42003a40:	e3500000 	cmp	r0, #0
42003a44:	051f03f8 	ldreq	r0, [pc, #-1016]	; 42003654 <ulTaskNotifyTake+0x90>
42003a48:	e92d4010 	push	{r4, lr}
42003a4c:	05904000 	ldreq	r4, [r0]
42003a50:	11a04000 	movne	r4, r0
42003a54:	ebfff3cf 	bl	42000998 <vPortEnterCritical>
42003a58:	e5d40058 	ldrb	r0, [r4, #88]	; 0x58
42003a5c:	e3500002 	cmp	r0, #2
42003a60:	03a00000 	moveq	r0, #0
42003a64:	05c40058 	strbeq	r0, [r4, #88]	; 0x58
42003a68:	03a04001 	moveq	r4, #1
42003a6c:	13a04000 	movne	r4, #0
42003a70:	ebfff3d8 	bl	420009d8 <vPortExitCritical>
42003a74:	e1a00004 	mov	r0, r4
42003a78:	e8bd8010 	pop	{r4, pc}

42003a7c <prvInitialiseNewTask>:
42003a7c:	e92d5ff0 	push	{r4, r5, r6, r7, r8, r9, sl, fp, ip, lr}
42003a80:	e1a09000 	mov	r9, r0
42003a84:	e28d0028 	add	r0, sp, #40	; 0x28
42003a88:	e1a06001 	mov	r6, r1
42003a8c:	e59d4030 	ldr	r4, [sp, #48]	; 0x30
42003a90:	e1a07002 	mov	r7, r2
42003a94:	e8900120 	ldm	r0, {r5, r8}
42003a98:	e1a01102 	lsl	r1, r2, #2
42003a9c:	e1a0a003 	mov	sl, r3
42003aa0:	e3a020a5 	mov	r2, #165	; 0xa5
42003aa4:	e5940030 	ldr	r0, [r4, #48]	; 0x30
42003aa8:	fa0003d1 	blx	420049f4 <__aeabi_memset>
42003aac:	e5940030 	ldr	r0, [r4, #48]	; 0x30
42003ab0:	e3a0b000 	mov	fp, #0
42003ab4:	e0800107 	add	r0, r0, r7, lsl #2
42003ab8:	e2400004 	sub	r0, r0, #4
42003abc:	e3c07007 	bic	r7, r0, #7
42003ac0:	e1a0000b 	mov	r0, fp
42003ac4:	e0842000 	add	r2, r4, r0
42003ac8:	e7d61000 	ldrb	r1, [r6, r0]
42003acc:	e5c21034 	strb	r1, [r2, #52]	; 0x34
42003ad0:	e7d61000 	ldrb	r1, [r6, r0]
42003ad4:	e3510000 	cmp	r1, #0
42003ad8:	0a000002 	beq	42003ae8 <prvInitialiseNewTask+0x6c>
42003adc:	e2800001 	add	r0, r0, #1
42003ae0:	e350000a 	cmp	r0, #10
42003ae4:	3afffff6 	bcc	42003ac4 <prvInitialiseNewTask+0x48>
42003ae8:	e3550007 	cmp	r5, #7
42003aec:	e5c4b03d 	strb	fp, [r4, #61]	; 0x3d
42003af0:	23a05006 	movcs	r5, #6
42003af4:	e2841048 	add	r1, r4, #72	; 0x48
42003af8:	e584502c 	str	r5, [r4, #44]	; 0x2c
42003afc:	e2840004 	add	r0, r4, #4
42003b00:	e8810820 	stm	r1, {r5, fp}
42003b04:	ebfff219 	bl	42000370 <vListInitialiseItem>
42003b08:	e2840018 	add	r0, r4, #24
42003b0c:	ebfff217 	bl	42000370 <vListInitialiseItem>
42003b10:	e2650007 	rsb	r0, r5, #7
42003b14:	e5840018 	str	r0, [r4, #24]
42003b18:	e5844010 	str	r4, [r4, #16]
42003b1c:	e584b050 	str	fp, [r4, #80]	; 0x50
42003b20:	e5844024 	str	r4, [r4, #36]	; 0x24
42003b24:	e584b054 	str	fp, [r4, #84]	; 0x54
42003b28:	e5c4b058 	strb	fp, [r4, #88]	; 0x58
42003b2c:	e1a0200a 	mov	r2, sl
42003b30:	e5c4b059 	strb	fp, [r4, #89]	; 0x59
42003b34:	e1a01009 	mov	r1, r9
42003b38:	e1a00007 	mov	r0, r7
42003b3c:	ebfff34c 	bl	42000874 <pxPortInitialiseStack>
42003b40:	e3580000 	cmp	r8, #0
42003b44:	e5840000 	str	r0, [r4]
42003b48:	15884000 	strne	r4, [r8]
42003b4c:	e8bd9ff0 	pop	{r4, r5, r6, r7, r8, r9, sl, fp, ip, pc}

42003b50 <prvResetNextTaskUnblockTime>:
42003b50:	e51f0504 	ldr	r0, [pc, #-1284]	; 42003654 <ulTaskNotifyTake+0x90>
42003b54:	e590103c 	ldr	r1, [r0, #60]	; 0x3c
42003b58:	e5911000 	ldr	r1, [r1]
42003b5c:	e3510000 	cmp	r1, #0
42003b60:	1590103c 	ldrne	r1, [r0, #60]	; 0x3c
42003b64:	03e01000 	mvneq	r1, #0
42003b68:	1591100c 	ldrne	r1, [r1, #12]
42003b6c:	1591100c 	ldrne	r1, [r1, #12]
42003b70:	15911004 	ldrne	r1, [r1, #4]
42003b74:	e5801028 	str	r1, [r0, #40]	; 0x28
42003b78:	e12fff1e 	bx	lr

42003b7c <prvDeleteTCB>:
42003b7c:	e92d4010 	push	{r4, lr}
42003b80:	e1a04000 	mov	r4, r0
42003b84:	e5900030 	ldr	r0, [r0, #48]	; 0x30
42003b88:	ebfff1d1 	bl	420002d4 <vPortFree>
42003b8c:	e1a00004 	mov	r0, r4
42003b90:	e8bd4010 	pop	{r4, lr}
42003b94:	eafff1ce 	b	420002d4 <vPortFree>

42003b98 <prvTaskIsTaskSuspended>:
42003b98:	e92d4070 	push	{r4, r5, r6, lr}
42003b9c:	e1b04000 	movs	r4, r0
42003ba0:	059f0070 	ldreq	r0, [pc, #112]	; 42003c18 <prvWriteNameToBuffer+0x38>
42003ba4:	e3a05000 	mov	r5, #0
42003ba8:	030016cc 	movweq	r1, #1740	; 0x6cc
42003bac:	0bfff264 	bleq	42000544 <vAssertCalled>
42003bb0:	e59f1064 	ldr	r1, [pc, #100]	; 42003c1c <prvWriteNameToBuffer+0x3c>
42003bb4:	e5940014 	ldr	r0, [r4, #20]
42003bb8:	e1500001 	cmp	r0, r1
42003bbc:	1a000005 	bne	42003bd8 <prvTaskIsTaskSuspended+0x40>
42003bc0:	e5940028 	ldr	r0, [r4, #40]	; 0x28
42003bc4:	e2411028 	sub	r1, r1, #40	; 0x28
42003bc8:	e1500001 	cmp	r0, r1
42003bcc:	0a000001 	beq	42003bd8 <prvTaskIsTaskSuspended+0x40>
42003bd0:	e3500000 	cmp	r0, #0
42003bd4:	03a05001 	moveq	r5, #1
42003bd8:	e1a00005 	mov	r0, r5
42003bdc:	e8bd8070 	pop	{r4, r5, r6, pc}

42003be0 <prvWriteNameToBuffer>:
42003be0:	e92d4010 	push	{r4, lr}
42003be4:	e1a04000 	mov	r4, r0
42003be8:	fa000361 	blx	42004974 <strcpy>
42003bec:	e1a00004 	mov	r0, r4
42003bf0:	fb000370 	blx	420049ba <strlen>
42003bf4:	e3a01020 	mov	r1, #32
42003bf8:	e3500009 	cmp	r0, #9
42003bfc:	23a01000 	movcs	r1, #0
42003c00:	e7c41000 	strb	r1, [r4, r0]
42003c04:	32800001 	addcc	r0, r0, #1
42003c08:	20800004 	addcs	r0, r0, r4
42003c0c:	3afffff9 	bcc	42003bf8 <prvWriteNameToBuffer+0x18>
42003c10:	e8bd8010 	pop	{r4, pc}
42003c14:	4201cfcc 	andmi	ip, r1, #204, 30	; 0x330
42003c18:	4200216c 	andmi	r2, r0, #108, 2
42003c1c:	4201cff4 	andmi	ip, r1, #244, 30	; 0x3d0

42003c20 <prvInsertTimerInActiveList>:
42003c20:	e92d4070 	push	{r4, r5, r6, lr}
42003c24:	e1510002 	cmp	r1, r2
42003c28:	e59f5270 	ldr	r5, [pc, #624]	; 42003ea0 <prvTimerTask+0x34>
42003c2c:	e3a04000 	mov	r4, #0
42003c30:	e5801004 	str	r1, [r0, #4]
42003c34:	e5800010 	str	r0, [r0, #16]
42003c38:	8a000006 	bhi	42003c58 <prvInsertTimerInActiveList+0x38>
42003c3c:	e0421003 	sub	r1, r2, r3
42003c40:	e5902018 	ldr	r2, [r0, #24]
42003c44:	e1510002 	cmp	r1, r2
42003c48:	32801004 	addcc	r1, r0, #4
42003c4c:	35950010 	ldrcc	r0, [r5, #16]
42003c50:	2a000004 	bcs	42003c68 <prvInsertTimerInActiveList+0x48>
42003c54:	ea000007 	b	42003c78 <prvInsertTimerInActiveList+0x58>
42003c58:	e1530002 	cmp	r3, r2
42003c5c:	9a000003 	bls	42003c70 <prvInsertTimerInActiveList+0x50>
42003c60:	e1530001 	cmp	r3, r1
42003c64:	8a000001 	bhi	42003c70 <prvInsertTimerInActiveList+0x50>
42003c68:	e3a04001 	mov	r4, #1
42003c6c:	ea000002 	b	42003c7c <prvInsertTimerInActiveList+0x5c>
42003c70:	e2801004 	add	r1, r0, #4
42003c74:	e595000c 	ldr	r0, [r5, #12]
42003c78:	ebfff1cb 	bl	420003ac <vListInsert>
42003c7c:	e1a00004 	mov	r0, r4
42003c80:	e8bd8070 	pop	{r4, r5, r6, pc}

42003c84 <xTimerGenericCommand>:
42003c84:	e92d47ff 	push	{r0, r1, r2, r3, r4, r5, r6, r7, r8, r9, sl, lr}
42003c88:	e1b04000 	movs	r4, r0
42003c8c:	e1a05001 	mov	r5, r1
42003c90:	e1a07002 	mov	r7, r2
42003c94:	e59d9030 	ldr	r9, [sp, #48]	; 0x30
42003c98:	e1a08003 	mov	r8, r3
42003c9c:	e3a06000 	mov	r6, #0
42003ca0:	03001182 	movweq	r1, #386	; 0x182
42003ca4:	028f0f7e 	addeq	r0, pc, #504	; 0x1f8
42003ca8:	0bfff225 	bleq	42000544 <vAssertCalled>
42003cac:	e59fa1ec 	ldr	sl, [pc, #492]	; 42003ea0 <prvTimerTask+0x34>
42003cb0:	e59a0000 	ldr	r0, [sl]
42003cb4:	e3500000 	cmp	r0, #0
42003cb8:	0a00000c 	beq	42003cf0 <xTimerGenericCommand+0x6c>
42003cbc:	e58d4008 	str	r4, [sp, #8]
42003cc0:	e88d00a0 	stm	sp, {r5, r7}
42003cc4:	e3550006 	cmp	r5, #6
42003cc8:	aa00000b 	bge	42003cfc <xTimerGenericCommand+0x78>
42003ccc:	ebfffcff 	bl	420030d0 <xTaskGetSchedulerState>
42003cd0:	e3500002 	cmp	r0, #2
42003cd4:	e59a0000 	ldr	r0, [sl]
42003cd8:	e3a03000 	mov	r3, #0
42003cdc:	01a02009 	moveq	r2, r9
42003ce0:	13a02000 	movne	r2, #0
42003ce4:	e1a0100d 	mov	r1, sp
42003ce8:	ebfff44f 	bl	42000e2c <xQueueGenericSend>
42003cec:	e1a06000 	mov	r6, r0
42003cf0:	e28dd010 	add	sp, sp, #16
42003cf4:	e1a00006 	mov	r0, r6
42003cf8:	e8bd87f0 	pop	{r4, r5, r6, r7, r8, r9, sl, pc}
42003cfc:	e3a03000 	mov	r3, #0
42003d00:	e1a02008 	mov	r2, r8
42003d04:	e1a0100d 	mov	r1, sp
42003d08:	ebfff582 	bl	42001318 <xQueueGenericSendFromISR>
42003d0c:	eafffff6 	b	42003cec <xTimerGenericCommand+0x68>

42003d10 <prvProcessReceivedCommands>:
42003d10:	e92d4070 	push	{r4, r5, r6, lr}
42003d14:	e59f6184 	ldr	r6, [pc, #388]	; 42003ea0 <prvTimerTask+0x34>
42003d18:	e24dd018 	sub	sp, sp, #24
42003d1c:	ea00004a 	b	42003e4c <prvProcessReceivedCommands+0x13c>
42003d20:	e59d0004 	ldr	r0, [sp, #4]
42003d24:	e3500000 	cmp	r0, #0
42003d28:	aa000005 	bge	42003d44 <prvProcessReceivedCommands+0x34>
42003d2c:	e59d2008 	ldr	r2, [sp, #8]
42003d30:	e1cd00dc 	ldrd	r0, [sp, #12]
42003d34:	e12fff32 	blx	r2
42003d38:	e59d0004 	ldr	r0, [sp, #4]
42003d3c:	e3500000 	cmp	r0, #0
42003d40:	ba000041 	blt	42003e4c <prvProcessReceivedCommands+0x13c>
42003d44:	e59d400c 	ldr	r4, [sp, #12]
42003d48:	e5940014 	ldr	r0, [r4, #20]
42003d4c:	e3500000 	cmp	r0, #0
42003d50:	12840004 	addne	r0, r4, #4
42003d54:	1bfff1a9 	blne	42000400 <uxListRemove>
42003d58:	e28d0014 	add	r0, sp, #20
42003d5c:	eb000107 	bl	42004180 <prvSampleTimeNow>
42003d60:	e1a05000 	mov	r5, r0
42003d64:	e59d0004 	ldr	r0, [sp, #4]
42003d68:	e350000a 	cmp	r0, #10
42003d6c:	308ff100 	addcc	pc, pc, r0, lsl #2
42003d70:	ea000035 	b	42003e4c <prvProcessReceivedCommands+0x13c>
42003d74:	ea000008 	b	42003d9c <prvProcessReceivedCommands+0x8c>
42003d78:	ea000007 	b	42003d9c <prvProcessReceivedCommands+0x8c>
42003d7c:	ea000006 	b	42003d9c <prvProcessReceivedCommands+0x8c>
42003d80:	ea000031 	b	42003e4c <prvProcessReceivedCommands+0x13c>
42003d84:	ea000021 	b	42003e10 <prvProcessReceivedCommands+0x100>
42003d88:	ea00002d 	b	42003e44 <prvProcessReceivedCommands+0x134>
42003d8c:	ea000002 	b	42003d9c <prvProcessReceivedCommands+0x8c>
42003d90:	ea000001 	b	42003d9c <prvProcessReceivedCommands+0x8c>
42003d94:	ea00002c 	b	42003e4c <prvProcessReceivedCommands+0x13c>
42003d98:	ea00001c 	b	42003e10 <prvProcessReceivedCommands+0x100>
42003d9c:	e59d0008 	ldr	r0, [sp, #8]
42003da0:	e1a02005 	mov	r2, r5
42003da4:	e5941018 	ldr	r1, [r4, #24]
42003da8:	e1a03000 	mov	r3, r0
42003dac:	e0811000 	add	r1, r1, r0
42003db0:	e1a00004 	mov	r0, r4
42003db4:	ebffff99 	bl	42003c20 <prvInsertTimerInActiveList>
42003db8:	e3500000 	cmp	r0, #0
42003dbc:	0a000022 	beq	42003e4c <prvProcessReceivedCommands+0x13c>
42003dc0:	e5941024 	ldr	r1, [r4, #36]	; 0x24
42003dc4:	e1a00004 	mov	r0, r4
42003dc8:	e12fff31 	blx	r1
42003dcc:	e594001c 	ldr	r0, [r4, #28]
42003dd0:	e3500001 	cmp	r0, #1
42003dd4:	1a00001c 	bne	42003e4c <prvProcessReceivedCommands+0x13c>
42003dd8:	e3a00000 	mov	r0, #0
42003ddc:	e58d0000 	str	r0, [sp]
42003de0:	e3a03000 	mov	r3, #0
42003de4:	e59d0008 	ldr	r0, [sp, #8]
42003de8:	e5941018 	ldr	r1, [r4, #24]
42003dec:	e0802001 	add	r2, r0, r1
42003df0:	e1a01003 	mov	r1, r3
42003df4:	e1a00004 	mov	r0, r4
42003df8:	ebffffa1 	bl	42003c84 <xTimerGenericCommand>
42003dfc:	e3500000 	cmp	r0, #0
42003e00:	030012fd 	movweq	r1, #765	; 0x2fd
42003e04:	028f0098 	addeq	r0, pc, #152	; 0x98
42003e08:	0bfff1cd 	bleq	42000544 <vAssertCalled>
42003e0c:	ea00000e 	b	42003e4c <prvProcessReceivedCommands+0x13c>
42003e10:	e59d0008 	ldr	r0, [sp, #8]
42003e14:	e3500000 	cmp	r0, #0
42003e18:	e5840018 	str	r0, [r4, #24]
42003e1c:	03a01fc5 	moveq	r1, #788	; 0x314
42003e20:	028f007c 	addeq	r0, pc, #124	; 0x7c
42003e24:	0bfff1c6 	bleq	42000544 <vAssertCalled>
42003e28:	e5940018 	ldr	r0, [r4, #24]
42003e2c:	e1a03005 	mov	r3, r5
42003e30:	e1a02003 	mov	r2, r3
42003e34:	e0801005 	add	r1, r0, r5
42003e38:	e1a00004 	mov	r0, r4
42003e3c:	ebffff77 	bl	42003c20 <prvInsertTimerInActiveList>
42003e40:	ea000001 	b	42003e4c <prvProcessReceivedCommands+0x13c>
42003e44:	e1a00004 	mov	r0, r4
42003e48:	ebfff121 	bl	420002d4 <vPortFree>
42003e4c:	e5960000 	ldr	r0, [r6]
42003e50:	e3a02000 	mov	r2, #0
42003e54:	e28d1004 	add	r1, sp, #4
42003e58:	ebfff5b7 	bl	4200153c <xQueueReceive>
42003e5c:	e3500000 	cmp	r0, #0
42003e60:	1affffae 	bne	42003d20 <prvProcessReceivedCommands+0x10>
42003e64:	e28dd018 	add	sp, sp, #24
42003e68:	e8bd8070 	pop	{r4, r5, r6, pc}

42003e6c <prvTimerTask>:
42003e6c:	e59f402c 	ldr	r4, [pc, #44]	; 42003ea0 <prvTimerTask+0x34>
42003e70:	e594000c 	ldr	r0, [r4, #12]
42003e74:	e5901000 	ldr	r1, [r0]
42003e78:	e3510000 	cmp	r1, #0
42003e7c:	03a01001 	moveq	r1, #1
42003e80:	13a01000 	movne	r1, #0
42003e84:	e3510000 	cmp	r1, #0
42003e88:	0590000c 	ldreq	r0, [r0, #12]
42003e8c:	05900000 	ldreq	r0, [r0]
42003e90:	13a00000 	movne	r0, #0
42003e94:	eb0000c8 	bl	420041bc <prvProcessTimerOrBlockTask>
42003e98:	ebffff9c 	bl	42003d10 <prvProcessReceivedCommands>
42003e9c:	eafffff3 	b	42003e70 <prvTimerTask+0x4>
42003ea0:	42005a48 	andmi	r5, r0, #72, 20	; 0x48000
42003ea4:	656d6974 	strbvs	r6, [sp, #-2420]!	; 0x974
42003ea8:	632e7372 	teqvs	lr, #-939524095	; 0xc8000001
42003eac:	00000000 	andeq	r0, r0, r0

42003eb0 <prvCheckForValidListAndQueue>:
42003eb0:	e92d4010 	push	{r4, lr}
42003eb4:	ebfff2b7 	bl	42000998 <vPortEnterCritical>
42003eb8:	e51f4020 	ldr	r4, [pc, #-32]	; 42003ea0 <prvTimerTask+0x34>
42003ebc:	e5940000 	ldr	r0, [r4]
42003ec0:	e3500000 	cmp	r0, #0
42003ec4:	1a00000f 	bne	42003f08 <prvCheckForValidListAndQueue+0x58>
42003ec8:	e59f0230 	ldr	r0, [pc, #560]	; 42004100 <xTimerPendFunctionCallFromISR+0x38>
42003ecc:	ebfff11e 	bl	4200034c <vListInitialise>
42003ed0:	e59f022c 	ldr	r0, [pc, #556]	; 42004104 <xTimerPendFunctionCallFromISR+0x3c>
42003ed4:	ebfff11c 	bl	4200034c <vListInitialise>
42003ed8:	e59f0220 	ldr	r0, [pc, #544]	; 42004100 <xTimerPendFunctionCallFromISR+0x38>
42003edc:	e3a02000 	mov	r2, #0
42003ee0:	e3a01010 	mov	r1, #16
42003ee4:	e584000c 	str	r0, [r4, #12]
42003ee8:	e2800014 	add	r0, r0, #20
42003eec:	e5840010 	str	r0, [r4, #16]
42003ef0:	e3a00005 	mov	r0, #5
42003ef4:	ebfff32a 	bl	42000ba4 <xQueueGenericCreate>
42003ef8:	e3500000 	cmp	r0, #0
42003efc:	e5840000 	str	r0, [r4]
42003f00:	128f1c02 	addne	r1, pc, #512	; 0x200
42003f04:	1bfff6f0 	blne	42001acc <vQueueAddToRegistry>
42003f08:	e8bd4010 	pop	{r4, lr}
42003f0c:	eafff2b1 	b	420009d8 <vPortExitCritical>

42003f10 <xTimerCreateTimerTask>:
42003f10:	e92d401c 	push	{r2, r3, r4, lr}
42003f14:	e3a04000 	mov	r4, #0
42003f18:	ebffffe4 	bl	42003eb0 <prvCheckForValidListAndQueue>
42003f1c:	e51f0084 	ldr	r0, [pc, #-132]	; 42003ea0 <prvTimerTask+0x34>
42003f20:	e5900000 	ldr	r0, [r0]
42003f24:	e3500000 	cmp	r0, #0
42003f28:	0a000009 	beq	42003f54 <xTimerCreateTimerTask+0x44>
42003f2c:	e3a00006 	mov	r0, #6
42003f30:	e59f11d8 	ldr	r1, [pc, #472]	; 42004110 <xTimerPendFunctionCallFromISR+0x48>
42003f34:	e3a03000 	mov	r3, #0
42003f38:	e3a02f7d 	mov	r2, #500	; 0x1f4
42003f3c:	e1cd00f0 	strd	r0, [sp]
42003f40:	e28f1f73 	add	r1, pc, #460	; 0x1cc
42003f44:	e59f01d0 	ldr	r0, [pc, #464]	; 4200411c <xTimerPendFunctionCallFromISR+0x54>
42003f48:	ebfff790 	bl	42001d90 <xTaskCreate>
42003f4c:	e1b04000 	movs	r4, r0
42003f50:	1a000002 	bne	42003f60 <xTimerCreateTimerTask+0x50>
42003f54:	e300110f 	movw	r1, #271	; 0x10f
42003f58:	e24f00bc 	sub	r0, pc, #188	; 0xbc
42003f5c:	ebfff178 	bl	42000544 <vAssertCalled>
42003f60:	e1a00004 	mov	r0, r4
42003f64:	e8bd801c 	pop	{r2, r3, r4, pc}

42003f68 <xTimerCreate>:
42003f68:	e92d41f0 	push	{r4, r5, r6, r7, r8, lr}
42003f6c:	e1a08000 	mov	r8, r0
42003f70:	e1a05001 	mov	r5, r1
42003f74:	e1a06002 	mov	r6, r2
42003f78:	e1a07003 	mov	r7, r3
42003f7c:	e3a0002c 	mov	r0, #44	; 0x2c
42003f80:	ed2d8b02 	vpush	{d8}
42003f84:	ed9d8a08 	vldr	s16, [sp, #32]
42003f88:	ebfff08b 	bl	420001bc <_maybe_terminate_alloc>
42003f8c:	e1b04000 	movs	r4, r0
42003f90:	0a00000a 	beq	42003fc0 <xTimerCreate+0x58>
42003f94:	e3550000 	cmp	r5, #0
42003f98:	03a01f5a 	moveq	r1, #360	; 0x168
42003f9c:	024f0c01 	subeq	r0, pc, #256	; 0x100
42003fa0:	0bfff167 	bleq	42000544 <vAssertCalled>
42003fa4:	ebffffc1 	bl	42003eb0 <prvCheckForValidListAndQueue>
42003fa8:	e2840018 	add	r0, r4, #24
42003fac:	e5848000 	str	r8, [r4]
42003fb0:	e88000e0 	stm	r0, {r5, r6, r7}
42003fb4:	e2840004 	add	r0, r4, #4
42003fb8:	ed848a09 	vstr	s16, [r4, #36]	; 0x24
42003fbc:	ebfff0eb 	bl	42000370 <vListInitialiseItem>
42003fc0:	ecbd8b02 	vpop	{d8}
42003fc4:	e1a00004 	mov	r0, r4
42003fc8:	e8bd81f0 	pop	{r4, r5, r6, r7, r8, pc}

42003fcc <xTimerGetTimerDaemonTaskHandle>:
42003fcc:	e92d4010 	push	{r4, lr}
42003fd0:	e51f4138 	ldr	r4, [pc, #-312]	; 42003ea0 <prvTimerTask+0x34>
42003fd4:	e5940004 	ldr	r0, [r4, #4]
42003fd8:	e3500000 	cmp	r0, #0
42003fdc:	03a01f6b 	moveq	r1, #428	; 0x1ac
42003fe0:	024f0f51 	subeq	r0, pc, #324	; 0x144
42003fe4:	0bfff156 	bleq	42000544 <vAssertCalled>
42003fe8:	e5940004 	ldr	r0, [r4, #4]
42003fec:	e8bd8010 	pop	{r4, pc}

42003ff0 <xTimerGetPeriod>:
42003ff0:	e92d4010 	push	{r4, lr}
42003ff4:	e1b04000 	movs	r4, r0
42003ff8:	030011b5 	movweq	r1, #437	; 0x1b5
42003ffc:	024f0e16 	subeq	r0, pc, #352	; 0x160
42004000:	0bfff14f 	bleq	42000544 <vAssertCalled>
42004004:	e5940018 	ldr	r0, [r4, #24]
42004008:	e8bd8010 	pop	{r4, pc}

4200400c <xTimerGetExpiryTime>:
4200400c:	e92d4010 	push	{r4, lr}
42004010:	e1b04000 	movs	r4, r0
42004014:	030011bf 	movweq	r1, #447	; 0x1bf
42004018:	024f0f5f 	subeq	r0, pc, #380	; 0x17c
4200401c:	0bfff148 	bleq	42000544 <vAssertCalled>
42004020:	e5940004 	ldr	r0, [r4, #4]
42004024:	e8bd8010 	pop	{r4, pc}

42004028 <pcTimerGetName>:
42004028:	e92d4010 	push	{r4, lr}
4200402c:	e1b04000 	movs	r4, r0
42004030:	030011c9 	movweq	r1, #457	; 0x1c9
42004034:	024f0f66 	subeq	r0, pc, #408	; 0x198
42004038:	0bfff141 	bleq	42000544 <vAssertCalled>
4200403c:	e5940000 	ldr	r0, [r4]
42004040:	e8bd8010 	pop	{r4, pc}

42004044 <xTimerIsTimerActive>:
42004044:	e92d4010 	push	{r4, lr}
42004048:	e1b04000 	movs	r4, r0
4200404c:	030013b6 	movweq	r1, #950	; 0x3b6
42004050:	024f0f6d 	subeq	r0, pc, #436	; 0x1b4
42004054:	0bfff13a 	bleq	42000544 <vAssertCalled>
42004058:	ebfff24e 	bl	42000998 <vPortEnterCritical>
4200405c:	e5940014 	ldr	r0, [r4, #20]
42004060:	e3500000 	cmp	r0, #0
42004064:	13a04001 	movne	r4, #1
42004068:	03a04000 	moveq	r4, #0
4200406c:	ebfff259 	bl	420009d8 <vPortExitCritical>
42004070:	e1a00004 	mov	r0, r4
42004074:	e8bd8010 	pop	{r4, pc}

42004078 <pvTimerGetTimerID>:
42004078:	e92d4010 	push	{r4, lr}
4200407c:	e1b04000 	movs	r4, r0
42004080:	030013cb 	movweq	r1, #971	; 0x3cb
42004084:	024f0f7a 	subeq	r0, pc, #488	; 0x1e8
42004088:	0bfff12d 	bleq	42000544 <vAssertCalled>
4200408c:	ebfff241 	bl	42000998 <vPortEnterCritical>
42004090:	e5944020 	ldr	r4, [r4, #32]
42004094:	ebfff24f 	bl	420009d8 <vPortExitCritical>
42004098:	e1a00004 	mov	r0, r4
4200409c:	e8bd8010 	pop	{r4, pc}

420040a0 <vTimerSetTimerID>:
420040a0:	e92d4070 	push	{r4, r5, r6, lr}
420040a4:	e1b04000 	movs	r4, r0
420040a8:	e1a05001 	mov	r5, r1
420040ac:	030013db 	movweq	r1, #987	; 0x3db
420040b0:	024f0f85 	subeq	r0, pc, #532	; 0x214
420040b4:	0bfff122 	bleq	42000544 <vAssertCalled>
420040b8:	ebfff236 	bl	42000998 <vPortEnterCritical>
420040bc:	e5845020 	str	r5, [r4, #32]
420040c0:	e8bd4070 	pop	{r4, r5, r6, lr}
420040c4:	eafff243 	b	420009d8 <vPortExitCritical>

420040c8 <xTimerPendFunctionCallFromISR>:
420040c8:	e92d401f 	push	{r0, r1, r2, r3, r4, lr}
420040cc:	e3e04001 	mvn	r4, #1
420040d0:	e28de004 	add	lr, sp, #4
420040d4:	e1a0c003 	mov	ip, r3
420040d8:	e58d4000 	str	r4, [sp]
420040dc:	e3a03000 	mov	r3, #0
420040e0:	e88e0007 	stm	lr, {r0, r1, r2}
420040e4:	e1a0200c 	mov	r2, ip
420040e8:	e51f0250 	ldr	r0, [pc, #-592]	; 42003ea0 <prvTimerTask+0x34>
420040ec:	e1a0100d 	mov	r1, sp
420040f0:	e5900000 	ldr	r0, [r0]
420040f4:	ebfff487 	bl	42001318 <xQueueGenericSendFromISR>
420040f8:	e28dd010 	add	sp, sp, #16
420040fc:	e8bd8010 	pop	{r4, pc}
42004100:	4201d008 	andmi	sp, r1, #8
42004104:	4201d01c 	andmi	sp, r1, #28
42004108:	51726d54 	cmnpl	r2, r4, asr sp
4200410c:	00000000 	andeq	r0, r0, r0
42004110:	42005a4c 	andmi	r5, r0, #76, 20	; 0x4c000
42004114:	20726d54 	rsbscs	r6, r2, r4, asr sp
42004118:	00637653 	rsbeq	r7, r3, r3, asr r6
4200411c:	42003e6c 	andmi	r3, r0, #108, 28	; 0x6c0

42004120 <xTimerPendFunctionCall>:
42004120:	e92d41ff 	push	{r0, r1, r2, r3, r4, r5, r6, r7, r8, lr}
42004124:	e1a04000 	mov	r4, r0
42004128:	e51f8290 	ldr	r8, [pc, #-656]	; 42003ea0 <prvTimerTask+0x34>
4200412c:	e1a05001 	mov	r5, r1
42004130:	e1a06002 	mov	r6, r2
42004134:	e1a07003 	mov	r7, r3
42004138:	e5980000 	ldr	r0, [r8]
4200413c:	e3500000 	cmp	r0, #0
42004140:	03001407 	movweq	r1, #1031	; 0x407
42004144:	024f0faa 	subeq	r0, pc, #680	; 0x2a8
42004148:	0bfff0fd 	bleq	42000544 <vAssertCalled>
4200414c:	e3e00000 	mvn	r0, #0
42004150:	e88d0071 	stm	sp, {r0, r4, r5, r6}
42004154:	e3a03000 	mov	r3, #0
42004158:	e5980000 	ldr	r0, [r8]
4200415c:	e1a02007 	mov	r2, r7
42004160:	e1a0100d 	mov	r1, sp
42004164:	ebfff330 	bl	42000e2c <xQueueGenericSend>
42004168:	e28dd010 	add	sp, sp, #16
4200416c:	e8bd81f0 	pop	{r4, r5, r6, r7, r8, pc}

42004170 <uxTimerGetTimerNumber>:
42004170:	e5900028 	ldr	r0, [r0, #40]	; 0x28
42004174:	e12fff1e 	bx	lr

42004178 <vTimerSetTimerNumber>:
42004178:	e5801028 	str	r1, [r0, #40]	; 0x28
4200417c:	e12fff1e 	bx	lr

42004180 <prvSampleTimeNow>:
42004180:	e92d4070 	push	{r4, r5, r6, lr}
42004184:	e1a05000 	mov	r5, r0
42004188:	ebfff9dc 	bl	42002900 <xTaskGetTickCount>
4200418c:	e51f62f4 	ldr	r6, [pc, #-756]	; 42003ea0 <prvTimerTask+0x34>
42004190:	e1a04000 	mov	r4, r0
42004194:	e5960008 	ldr	r0, [r6, #8]
42004198:	e1540000 	cmp	r4, r0
4200419c:	23a00000 	movcs	r0, #0
420041a0:	2a000001 	bcs	420041ac <prvSampleTimeNow+0x2c>
420041a4:	eb000043 	bl	420042b8 <prvSwitchTimerLists>
420041a8:	e3a00001 	mov	r0, #1
420041ac:	e5850000 	str	r0, [r5]
420041b0:	e1a00004 	mov	r0, r4
420041b4:	e5864008 	str	r4, [r6, #8]
420041b8:	e8bd8070 	pop	{r4, r5, r6, pc}

420041bc <prvProcessTimerOrBlockTask>:
420041bc:	e92d41fc 	push	{r2, r3, r4, r5, r6, r7, r8, lr}
420041c0:	e1a05000 	mov	r5, r0
420041c4:	e1a06001 	mov	r6, r1
420041c8:	ebfff816 	bl	42002228 <vTaskSuspendAll>
420041cc:	e28d0004 	add	r0, sp, #4
420041d0:	ebffffea 	bl	42004180 <prvSampleTimeNow>
420041d4:	e1a04000 	mov	r4, r0
420041d8:	e59d0004 	ldr	r0, [sp, #4]
420041dc:	e3500000 	cmp	r0, #0
420041e0:	0a000001 	beq	420041ec <prvProcessTimerOrBlockTask+0x30>
420041e4:	ebfff799 	bl	42002050 <xTaskResumeAll>
420041e8:	e8bd81fc 	pop	{r2, r3, r4, r5, r6, r7, r8, pc}
420041ec:	e51f7354 	ldr	r7, [pc, #-852]	; 42003ea0 <prvTimerTask+0x34>
420041f0:	e3560000 	cmp	r6, #0
420041f4:	0a00000c 	beq	4200422c <prvProcessTimerOrBlockTask+0x70>
420041f8:	e5970010 	ldr	r0, [r7, #16]
420041fc:	e5900000 	ldr	r0, [r0]
42004200:	e3500000 	cmp	r0, #0
42004204:	03a06001 	moveq	r6, #1
42004208:	13a06000 	movne	r6, #0
4200420c:	e5970000 	ldr	r0, [r7]
42004210:	e0451004 	sub	r1, r5, r4
42004214:	e1a02006 	mov	r2, r6
42004218:	ebfff645 	bl	42001b34 <vQueueWaitForMessageRestricted>
4200421c:	ebfff78b 	bl	42002050 <xTaskResumeAll>
42004220:	e3500000 	cmp	r0, #0
42004224:	0f000000 	svceq	0x00000000
42004228:	e8bd81fc 	pop	{r2, r3, r4, r5, r6, r7, r8, pc}
4200422c:	e1550004 	cmp	r5, r4
42004230:	8afffff5 	bhi	4200420c <prvProcessTimerOrBlockTask+0x50>
42004234:	ebfff785 	bl	42002050 <xTaskResumeAll>
42004238:	e597000c 	ldr	r0, [r7, #12]
4200423c:	e1a06004 	mov	r6, r4
42004240:	e590000c 	ldr	r0, [r0, #12]
42004244:	e590400c 	ldr	r4, [r0, #12]
42004248:	e2840004 	add	r0, r4, #4
4200424c:	ebfff06b 	bl	42000400 <uxListRemove>
42004250:	e594001c 	ldr	r0, [r4, #28]
42004254:	e3500001 	cmp	r0, #1
42004258:	1a000012 	bne	420042a8 <prvProcessTimerOrBlockTask+0xec>
4200425c:	e5940018 	ldr	r0, [r4, #24]
42004260:	e1a03005 	mov	r3, r5
42004264:	e1a02006 	mov	r2, r6
42004268:	e0801005 	add	r1, r0, r5
4200426c:	e1a00004 	mov	r0, r4
42004270:	ebfffe6a 	bl	42003c20 <prvInsertTimerInActiveList>
42004274:	e3500000 	cmp	r0, #0
42004278:	0a00000a 	beq	420042a8 <prvProcessTimerOrBlockTask+0xec>
4200427c:	e3a00000 	mov	r0, #0
42004280:	e1a03000 	mov	r3, r0
42004284:	e1a01000 	mov	r1, r0
42004288:	e58d0000 	str	r0, [sp]
4200428c:	e1a02005 	mov	r2, r5
42004290:	e1a00004 	mov	r0, r4
42004294:	ebfffe7a 	bl	42003c84 <xTimerGenericCommand>
42004298:	e3500000 	cmp	r0, #0
4200429c:	059f00c0 	ldreq	r0, [pc, #192]	; 42004364 <prvSwitchTimerLists+0xac>
420042a0:	03a01f79 	moveq	r1, #484	; 0x1e4
420042a4:	0bfff0a6 	bleq	42000544 <vAssertCalled>
420042a8:	e5941024 	ldr	r1, [r4, #36]	; 0x24
420042ac:	e1a00004 	mov	r0, r4
420042b0:	e12fff31 	blx	r1
420042b4:	e8bd81fc 	pop	{r2, r3, r4, r5, r6, r7, r8, pc}

420042b8 <prvSwitchTimerLists>:
420042b8:	e92d40f8 	push	{r3, r4, r5, r6, r7, lr}
420042bc:	e51f6424 	ldr	r6, [pc, #-1060]	; 42003ea0 <prvTimerTask+0x34>
420042c0:	ea00001f 	b	42004344 <prvSwitchTimerLists+0x8c>
420042c4:	e590000c 	ldr	r0, [r0, #12]
420042c8:	e590400c 	ldr	r4, [r0, #12]
420042cc:	e5905000 	ldr	r5, [r0]
420042d0:	e2840004 	add	r0, r4, #4
420042d4:	ebfff049 	bl	42000400 <uxListRemove>
420042d8:	e5941024 	ldr	r1, [r4, #36]	; 0x24
420042dc:	e1a00004 	mov	r0, r4
420042e0:	e12fff31 	blx	r1
420042e4:	e594001c 	ldr	r0, [r4, #28]
420042e8:	e3500001 	cmp	r0, #1
420042ec:	1a000014 	bne	42004344 <prvSwitchTimerLists+0x8c>
420042f0:	e5940018 	ldr	r0, [r4, #24]
420042f4:	e0800005 	add	r0, r0, r5
420042f8:	e1500005 	cmp	r0, r5
420042fc:	9a000005 	bls	42004318 <prvSwitchTimerLists+0x60>
42004300:	e5840004 	str	r0, [r4, #4]
42004304:	e5844010 	str	r4, [r4, #16]
42004308:	e2841004 	add	r1, r4, #4
4200430c:	e596000c 	ldr	r0, [r6, #12]
42004310:	ebfff025 	bl	420003ac <vListInsert>
42004314:	ea00000a 	b	42004344 <prvSwitchTimerLists+0x8c>
42004318:	e3a00000 	mov	r0, #0
4200431c:	e1a02005 	mov	r2, r5
42004320:	e1a03000 	mov	r3, r0
42004324:	e1a01000 	mov	r1, r0
42004328:	e58d0000 	str	r0, [sp]
4200432c:	e1a00004 	mov	r0, r4
42004330:	ebfffe53 	bl	42003c84 <xTimerGenericCommand>
42004334:	e3500000 	cmp	r0, #0
42004338:	059f0024 	ldreq	r0, [pc, #36]	; 42004364 <prvSwitchTimerLists+0xac>
4200433c:	0300136e 	movweq	r1, #878	; 0x36e
42004340:	0bfff07f 	bleq	42000544 <vAssertCalled>
42004344:	e596000c 	ldr	r0, [r6, #12]
42004348:	e5901000 	ldr	r1, [r0]
4200434c:	e3510000 	cmp	r1, #0
42004350:	05961010 	ldreq	r1, [r6, #16]
42004354:	05a6100c 	streq	r1, [r6, #12]!
42004358:	05860004 	streq	r0, [r6, #4]
4200435c:	1affffd8 	bne	420042c4 <prvSwitchTimerLists+0xc>
42004360:	e8bd80f8 	pop	{r3, r4, r5, r6, r7, pc}
42004364:	42003ea4 	andmi	r3, r0, #164, 28	; 0xa40

42004368 <uart_init>:
42004368:	e92d41f0 	push	{r4, r5, r6, r7, r8, lr}
4200436c:	e1a04000 	mov	r4, r0
42004370:	e59f60cc 	ldr	r6, [pc, #204]	; 42004444 <uart_char+0xc>
42004374:	e1a05001 	mov	r5, r1
42004378:	e3a07000 	mov	r7, #0
4200437c:	e1a01002 	mov	r1, r2
42004380:	e0860184 	add	r0, r6, r4, lsl #3
42004384:	e7865184 	str	r5, [r6, r4, lsl #3]
42004388:	e5c07004 	strb	r7, [r0, #4]
4200438c:	e5c07005 	strb	r7, [r0, #5]
42004390:	e5c07006 	strb	r7, [r0, #6]
42004394:	e59f00ac 	ldr	r0, [pc, #172]	; 42004448 <uart_char+0x10>
42004398:	eb0001eb 	bl	42004b4c <__aeabi_idiv>
4200439c:	e3a01080 	mov	r1, #128	; 0x80
420043a0:	e1a00240 	asr	r0, r0, #4
420043a4:	e5c5100c 	strb	r1, [r5, #12]
420043a8:	e7961184 	ldr	r1, [r6, r4, lsl #3]
420043ac:	e5c10000 	strb	r0, [r1]
420043b0:	e1a00420 	lsr	r0, r0, #8
420043b4:	e7961184 	ldr	r1, [r6, r4, lsl #3]
420043b8:	e5c10004 	strb	r0, [r1, #4]
420043bc:	e3a00003 	mov	r0, #3
420043c0:	e7961184 	ldr	r1, [r6, r4, lsl #3]
420043c4:	e5c1000c 	strb	r0, [r1, #12]
420043c8:	e3a0000b 	mov	r0, #11
420043cc:	e7961184 	ldr	r1, [r6, r4, lsl #3]
420043d0:	e5c10010 	strb	r0, [r1, #16]
420043d4:	e3a00087 	mov	r0, #135	; 0x87
420043d8:	e7961184 	ldr	r1, [r6, r4, lsl #3]
420043dc:	e5c10008 	strb	r0, [r1, #8]
420043e0:	e7960184 	ldr	r0, [r6, r4, lsl #3]
420043e4:	e5d01000 	ldrb	r1, [r0]
420043e8:	e5c07004 	strb	r7, [r0, #4]
420043ec:	e8bd81f0 	pop	{r4, r5, r6, r7, r8, pc}

420043f0 <uart_poll_out>:
420043f0:	e1a02000 	mov	r2, r0
420043f4:	e1a00001 	mov	r0, r1
420043f8:	e59f1044 	ldr	r1, [pc, #68]	; 42004444 <uart_char+0xc>
420043fc:	e7912182 	ldr	r2, [r1, r2, lsl #3]
42004400:	e5d23014 	ldrb	r3, [r2, #20]
42004404:	e3130040 	tst	r3, #64	; 0x40
42004408:	15c20000 	strbne	r0, [r2]
4200440c:	0afffffb 	beq	42004400 <uart_poll_out+0x10>
42004410:	e12fff1e 	bx	lr

42004414 <uart_puts>:
42004414:	e1a0c000 	mov	ip, r0
42004418:	e52de004 	push	{lr}		; (str lr, [sp, #-4]!)
4200441c:	ea000001 	b	42004428 <uart_puts+0x14>
42004420:	e3a00000 	mov	r0, #0
42004424:	ebfffff1 	bl	420043f0 <uart_poll_out>
42004428:	e4dc1001 	ldrb	r1, [ip], #1
4200442c:	e3510000 	cmp	r1, #0
42004430:	1afffffa 	bne	42004420 <uart_puts+0xc>
42004434:	e49df004 	pop	{pc}		; (ldr pc, [sp], #4)

42004438 <uart_char>:
42004438:	e1a01000 	mov	r1, r0
4200443c:	e3a00000 	mov	r0, #0
42004440:	eaffffea 	b	420043f0 <uart_poll_out>
42004444:	4201d030 	andmi	sp, r1, #48	; 0x30
42004448:	01e84800 	mvneq	r4, r0, lsl #16

4200444c <readl>:
4200444c:	e5900000 	ldr	r0, [r0]
42004450:	e12fff1e 	bx	lr

42004454 <writel>:
42004454:	e5801000 	str	r1, [r0]
42004458:	e12fff1e 	bx	lr

4200445c <config_interrupt>:
4200445c:	e92d41f0 	push	{r4, r5, r6, r7, r8, lr}
42004460:	e1a04000 	mov	r4, r0
42004464:	e3e00003 	mvn	r0, #3
42004468:	e1a07001 	mov	r7, r1
4200446c:	e00051c4 	and	r5, r0, r4, asr #3
42004470:	e204001f 	and	r0, r4, #31
42004474:	e3a01001 	mov	r1, #1
42004478:	e2855772 	add	r5, r5, #29884416	; 0x1c80000
4200447c:	e2855c11 	add	r5, r5, #4352	; 0x1100
42004480:	e1a06011 	lsl	r6, r1, r0
42004484:	e1a01005 	mov	r1, r5
42004488:	e28f0e12 	add	r0, pc, #288	; 0x120
4200448c:	fa00007c 	blx	42004684 <__2printf>
42004490:	e5950000 	ldr	r0, [r5]
42004494:	e2041003 	and	r1, r4, #3
42004498:	e1800006 	orr	r0, r0, r6
4200449c:	e5850000 	str	r0, [r5]
420044a0:	e3c40003 	bic	r0, r4, #3
420044a4:	e0804001 	add	r4, r0, r1
420044a8:	e28f0f47 	add	r0, pc, #284	; 0x11c
420044ac:	e2844772 	add	r4, r4, #29884416	; 0x1c80000
420044b0:	e2844b06 	add	r4, r4, #6144	; 0x1800
420044b4:	e1a01004 	mov	r1, r4
420044b8:	fa000071 	blx	42004684 <__2printf>
420044bc:	e5c47000 	strb	r7, [r4]
420044c0:	e8bd81f0 	pop	{r4, r5, r6, r7, r8, pc}

420044c4 <UtilityInit>:
420044c4:	e59f211c 	ldr	r2, [pc, #284]	; 420045e8 <HypervisorInterruptHandler+0x40>
420044c8:	e3a00000 	mov	r0, #0
420044cc:	e59f1118 	ldr	r1, [pc, #280]	; 420045ec <HypervisorInterruptHandler+0x44>
420044d0:	e92d4010 	push	{r4, lr}
420044d4:	ebffffa3 	bl	42004368 <uart_init>
420044d8:	e3a01001 	mov	r1, #1
420044dc:	e3a00032 	mov	r0, #50	; 0x32
420044e0:	ebffffdd 	bl	4200445c <config_interrupt>
420044e4:	e3a01001 	mov	r1, #1
420044e8:	e3a00033 	mov	r0, #51	; 0x33
420044ec:	ebffffda 	bl	4200445c <config_interrupt>
420044f0:	e59f10f8 	ldr	r1, [pc, #248]	; 420045f0 <HypervisorInterruptHandler+0x48>
420044f4:	e30f0fff 	movw	r0, #65535	; 0xffff
420044f8:	e5810004 	str	r0, [r1, #4]
420044fc:	e3a00003 	mov	r0, #3
42004500:	e5810000 	str	r0, [r1]
42004504:	e0211600 	eor	r1, r1, r0, lsl #12
42004508:	e5810000 	str	r0, [r1]
4200450c:	f1080080 	cpsie	i
42004510:	e28f00b0 	add	r0, pc, #176	; 0xb0
42004514:	fa00005a 	blx	42004684 <__2printf>
42004518:	e28f00a8 	add	r0, pc, #168	; 0xa8
4200451c:	fa000058 	blx	42004684 <__2printf>
42004520:	e8bd4010 	pop	{r4, lr}
42004524:	e28f00c8 	add	r0, pc, #200	; 0xc8
42004528:	ea000053 	b	4200467c <HypervisorInterruptHandler+0xd4>

4200452c <fputc>:
4200452c:	e92d4010 	push	{r4, lr}
42004530:	e1a04000 	mov	r4, r0
42004534:	e20000ff 	and	r0, r0, #255	; 0xff
42004538:	ebffffbe 	bl	42004438 <uart_char>
4200453c:	e1a00004 	mov	r0, r4
42004540:	e8bd8010 	pop	{r4, pc}

42004544 <read_timer>:
42004544:	e59f10bc 	ldr	r1, [pc, #188]	; 42004608 <HypervisorInterruptHandler+0x60>
42004548:	e0810200 	add	r0, r1, r0, lsl #4
4200454c:	e5900018 	ldr	r0, [r0, #24]
42004550:	e1e00000 	mvn	r0, r0
42004554:	e12fff1e 	bx	lr

42004558 <TimerInitialize>:
42004558:	e59f20a8 	ldr	r2, [pc, #168]	; 42004608 <HypervisorInterruptHandler+0x60>
4200455c:	e3050dc0 	movw	r0, #24000	; 0x5dc0
42004560:	e2821010 	add	r1, r2, #16
42004564:	e5810004 	str	r0, [r1, #4]
42004568:	e3a00007 	mov	r0, #7
4200456c:	e5810000 	str	r0, [r1]
42004570:	e2811010 	add	r1, r1, #16
42004574:	e3e00000 	mvn	r0, #0
42004578:	e5810004 	str	r0, [r1, #4]
4200457c:	e3a00007 	mov	r0, #7
42004580:	e5810000 	str	r0, [r1]
42004584:	e3a00001 	mov	r0, #1
42004588:	e5820000 	str	r0, [r2]
4200458c:	e12fff1e 	bx	lr

42004590 <FIQInterruptHandler>:
42004590:	e28f0074 	add	r0, pc, #116	; 0x74
42004594:	ea000038 	b	4200467c <HypervisorInterruptHandler+0xd4>

42004598 <PreFetchInterruptHandler>:
42004598:	e28f0084 	add	r0, pc, #132	; 0x84
4200459c:	ea000036 	b	4200467c <HypervisorInterruptHandler+0xd4>

420045a0 <AbortInterruptHandler>:
420045a0:	e28f0098 	add	r0, pc, #152	; 0x98
420045a4:	ea000034 	b	4200467c <HypervisorInterruptHandler+0xd4>

420045a8 <HypervisorInterruptHandler>:
420045a8:	e28f00ac 	add	r0, pc, #172	; 0xac
420045ac:	ea000032 	b	4200467c <HypervisorInterruptHandler+0xd4>
420045b0:	49444349 	stmdbmi	r4, {r0, r3, r6, r8, r9, lr}^
420045b4:	6e524553 	mrcvs	5, 2, r4, cr2, cr3, {2}
420045b8:	64646120 	strbtvs	r6, [r4], #-288	; 0x120
420045bc:	73736572 	cmnvc	r3, #478150656	; 0x1c800000
420045c0:	25783020 	ldrbcs	r3, [r8, #-32]!
420045c4:	20783830 	rsbscs	r3, r8, r0, lsr r8
420045c8:	00000d0a 	andeq	r0, r0, sl, lsl #26
420045cc:	49444349 	stmdbmi	r4, {r0, r3, r6, r8, r9, lr}^
420045d0:	6e525450 	mrcvs	4, 2, r5, cr2, cr0, {2}
420045d4:	64646120 	strbtvs	r6, [r4], #-288	; 0x120
420045d8:	73736572 	cmnvc	r3, #478150656	; 0x1c800000
420045dc:	25783020 	ldrbcs	r3, [r8, #-32]!
420045e0:	20783830 	rsbscs	r3, r8, r0, lsr r8
420045e4:	00000d0a 	andeq	r0, r0, sl, lsl #26
420045e8:	0001c200 	andeq	ip, r1, r0, lsl #4
420045ec:	01c28000 	biceq	r8, r2, r0
420045f0:	01c82000 	biceq	r2, r8, r0
420045f4:	6c697455 	cfstrdvs	mvd7, [r9], #-340	; 0xfffffeac
420045f8:	49797469 	ldmdbmi	r9!, {r0, r3, r5, r6, sl, ip, sp, lr}^
420045fc:	2074696e 	rsbscs	r6, r4, lr, ror #18
42004600:	656e6f44 	strbvs	r6, [lr, #-3908]!	; 0xf44
42004604:	000d0a20 	andeq	r0, sp, r0, lsr #20
42004608:	01c20c00 	biceq	r0, r2, r0, lsl #24
4200460c:	49514946 	ldmdbmi	r1, {r1, r2, r6, r8, fp, lr}^
42004610:	7265746e 	rsbvc	r7, r5, #1845493760	; 0x6e000000
42004614:	74707572 	ldrbtvc	r7, [r0], #-1394	; 0x572
42004618:	646e6148 	strbtvs	r6, [lr], #-328	; 0x148
4200461c:	2072656c 	rsbscs	r6, r2, ip, ror #10
42004620:	00000d0a 	andeq	r0, r0, sl, lsl #26
42004624:	46657250 			; <UNDEFINED> instruction: 0x46657250
42004628:	68637465 	stmdavs	r3!, {r0, r2, r5, r6, sl, ip, sp, lr}^
4200462c:	65746e49 	ldrbvs	r6, [r4, #-3657]!	; 0xe49
42004630:	70757272 	rsbsvc	r7, r5, r2, ror r2
42004634:	6e614874 	mcrvs	8, 3, r4, cr1, cr4, {3}
42004638:	72656c64 	rsbvc	r6, r5, #100, 24	; 0x6400
4200463c:	000d0a20 	andeq	r0, sp, r0, lsr #20
42004640:	726f6241 	rsbvc	r6, pc, #268435460	; 0x10000004
42004644:	746e4974 	strbtvc	r4, [lr], #-2420	; 0x974
42004648:	75727265 	ldrbvc	r7, [r2, #-613]!	; 0x265
4200464c:	61487470 	hvcvs	34624	; 0x8740
42004650:	656c646e 	strbvs	r6, [ip, #-1134]!	; 0x46e
42004654:	0d0a2072 	stceq	0, cr2, [sl, #-456]	; 0xfffffe38
42004658:	00000000 	andeq	r0, r0, r0
4200465c:	65707948 	ldrbvs	r7, [r0, #-2376]!	; 0x948
42004660:	73697672 	cmnvc	r9, #119537664	; 0x7200000
42004664:	6e49726f 	cdpvs	2, 4, cr7, cr9, cr15, {3}
42004668:	72726574 	rsbsvc	r6, r2, #116, 10	; 0x1d000000
4200466c:	48747075 	ldmdami	r4!, {r0, r2, r4, r5, r6, ip, sp, lr}^
42004670:	6c646e61 	stclvs	14, cr6, [r4], #-388	; 0xfffffe7c
42004674:	0a207265 	beq	42821010 <__temporary_stack_top$libspace+0x803e80>
42004678:	0000000d 	andeq	r0, r0, sp
4200467c:	e28fc001 	add	ip, pc, #1
42004680:	e12fff1c 	bx	ip

42004684 <__2printf>:
42004684:	b40f      	push	{r0, r1, r2, r3}
42004686:	4904      	ldr	r1, [pc, #16]	; (42004698 <__2printf+0x14>)
42004688:	b510      	push	{r4, lr}
4200468a:	aa03      	add	r2, sp, #12
4200468c:	9802      	ldr	r0, [sp, #8]
4200468e:	f000 fbab 	bl	42004de8 <_printf_char_file>
42004692:	bc10      	pop	{r4}
42004694:	f85d fb14 	ldr.w	pc, [sp], #20
42004698:	4201d090 	andmi	sp, r1, #144	; 0x90

4200469c <__2sprintf>:
4200469c:	b40f      	push	{r0, r1, r2, r3}
4200469e:	b51c      	push	{r2, r3, r4, lr}
420046a0:	4b07      	ldr	r3, [pc, #28]	; (420046c0 <__2sprintf+0x24>)
420046a2:	aa06      	add	r2, sp, #24
420046a4:	447b      	add	r3, pc
420046a6:	4669      	mov	r1, sp
420046a8:	9000      	str	r0, [sp, #0]
420046aa:	9805      	ldr	r0, [sp, #20]
420046ac:	f000 fb6d 	bl	42004d8a <_printf_char_common>
420046b0:	2000      	movs	r0, #0
420046b2:	4669      	mov	r1, sp
420046b4:	f000 fb7c 	bl	42004db0 <_sputc>
420046b8:	bc1c      	pop	{r2, r3, r4}
420046ba:	f85d fb14 	ldr.w	pc, [sp], #20
420046be:	07090000 	streq	r0, [r9, -r0]
	...

420046c4 <_printf_pre_padding>:
420046c4:	b570      	push	{r4, r5, r6, lr}
420046c6:	4604      	mov	r4, r0
420046c8:	6985      	ldr	r5, [r0, #24]
420046ca:	6800      	ldr	r0, [r0, #0]
420046cc:	06c1      	lsls	r1, r0, #27
420046ce:	d501      	bpl.n	420046d4 <_printf_pre_padding+0x10>
420046d0:	2630      	movs	r6, #48	; 0x30
420046d2:	e000      	b.n	420046d6 <_printf_pre_padding+0x12>
420046d4:	2620      	movs	r6, #32
420046d6:	07c0      	lsls	r0, r0, #31
420046d8:	d008      	beq.n	420046ec <_printf_pre_padding+0x28>
420046da:	bd70      	pop	{r4, r5, r6, pc}
420046dc:	e9d4 2101 	ldrd	r2, r1, [r4, #4]
420046e0:	4630      	mov	r0, r6
420046e2:	4790      	blx	r2
420046e4:	6a20      	ldr	r0, [r4, #32]
420046e6:	f100 0001 	add.w	r0, r0, #1
420046ea:	6220      	str	r0, [r4, #32]
420046ec:	1e6d      	subs	r5, r5, #1
420046ee:	d5f5      	bpl.n	420046dc <_printf_pre_padding+0x18>
420046f0:	bd70      	pop	{r4, r5, r6, pc}

420046f2 <_printf_post_padding>:
420046f2:	b570      	push	{r4, r5, r6, lr}
420046f4:	4604      	mov	r4, r0
420046f6:	6985      	ldr	r5, [r0, #24]
420046f8:	6800      	ldr	r0, [r0, #0]
420046fa:	07c0      	lsls	r0, r0, #31
420046fc:	d108      	bne.n	42004710 <_printf_post_padding+0x1e>
420046fe:	bd70      	pop	{r4, r5, r6, pc}
42004700:	e9d4 2101 	ldrd	r2, r1, [r4, #4]
42004704:	2020      	movs	r0, #32
42004706:	4790      	blx	r2
42004708:	6a20      	ldr	r0, [r4, #32]
4200470a:	f100 0001 	add.w	r0, r0, #1
4200470e:	6220      	str	r0, [r4, #32]
42004710:	1e6d      	subs	r5, r5, #1
42004712:	d5f5      	bpl.n	42004700 <_printf_post_padding+0xe>
42004714:	bd70      	pop	{r4, r5, r6, pc}

42004716 <_printf_str>:
42004716:	b570      	push	{r4, r5, r6, lr}
42004718:	4605      	mov	r5, r0
4200471a:	460c      	mov	r4, r1
4200471c:	2a01      	cmp	r2, #1
4200471e:	d005      	beq.n	4200472c <_printf_str+0x16>
42004720:	6828      	ldr	r0, [r5, #0]
42004722:	0680      	lsls	r0, r0, #26
42004724:	d500      	bpl.n	42004728 <_printf_str+0x12>
42004726:	69ea      	ldr	r2, [r5, #28]
42004728:	2300      	movs	r3, #0
4200472a:	e002      	b.n	42004732 <_printf_str+0x1c>
4200472c:	2301      	movs	r3, #1
4200472e:	e005      	b.n	4200473c <_printf_str+0x26>
42004730:	1c5b      	adds	r3, r3, #1
42004732:	4293      	cmp	r3, r2
42004734:	d202      	bcs.n	4200473c <_printf_str+0x26>
42004736:	5ce0      	ldrb	r0, [r4, r3]
42004738:	2800      	cmp	r0, #0
4200473a:	d1f9      	bne.n	42004730 <_printf_str+0x1a>
4200473c:	69a8      	ldr	r0, [r5, #24]
4200473e:	18e6      	adds	r6, r4, r3
42004740:	1ac0      	subs	r0, r0, r3
42004742:	61a8      	str	r0, [r5, #24]
42004744:	6a28      	ldr	r0, [r5, #32]
42004746:	4418      	add	r0, r3
42004748:	6228      	str	r0, [r5, #32]
4200474a:	4628      	mov	r0, r5
4200474c:	f7ff ffba 	bl	420046c4 <_printf_pre_padding>
42004750:	e004      	b.n	4200475c <_printf_str+0x46>
42004752:	e9d5 2101 	ldrd	r2, r1, [r5, #4]
42004756:	f814 0b01 	ldrb.w	r0, [r4], #1
4200475a:	4790      	blx	r2
4200475c:	42b4      	cmp	r4, r6
4200475e:	d3f8      	bcc.n	42004752 <_printf_str+0x3c>
42004760:	4628      	mov	r0, r5
42004762:	f7ff ffc6 	bl	420046f2 <_printf_post_padding>
42004766:	bd70      	pop	{r4, r5, r6, pc}

42004768 <_printf_int_dec>:
42004768:	e92d 41f0 	stmdb	sp!, {r4, r5, r6, r7, r8, lr}
4200476c:	4680      	mov	r8, r0
4200476e:	2600      	movs	r6, #0
42004770:	6810      	ldr	r0, [r2, #0]
42004772:	2975      	cmp	r1, #117	; 0x75
42004774:	4641      	mov	r1, r8
42004776:	a515      	add	r5, pc, #84	; (adr r5, 420047cc <_printf_int_dec+0x64>)
42004778:	d012      	beq.n	420047a0 <_printf_int_dec+0x38>
4200477a:	f3af 8000 	nop.w
4200477e:	2800      	cmp	r0, #0
42004780:	da03      	bge.n	4200478a <_printf_int_dec+0x22>
42004782:	f1c0 0000 	rsb	r0, r0, #0
42004786:	a512      	add	r5, pc, #72	; (adr r5, 420047d0 <_printf_int_dec+0x68>)
42004788:	e008      	b.n	4200479c <_printf_int_dec+0x34>
4200478a:	f8d8 1000 	ldr.w	r1, [r8]
4200478e:	078a      	lsls	r2, r1, #30
42004790:	d501      	bpl.n	42004796 <_printf_int_dec+0x2e>
42004792:	a510      	add	r5, pc, #64	; (adr r5, 420047d4 <_printf_int_dec+0x6c>)
42004794:	e002      	b.n	4200479c <_printf_int_dec+0x34>
42004796:	0749      	lsls	r1, r1, #29
42004798:	d504      	bpl.n	420047a4 <_printf_int_dec+0x3c>
4200479a:	a50f      	add	r5, pc, #60	; (adr r5, 420047d8 <_printf_int_dec+0x70>)
4200479c:	2601      	movs	r6, #1
4200479e:	e001      	b.n	420047a4 <_printf_int_dec+0x3c>
420047a0:	f3af 8000 	nop.w
420047a4:	2400      	movs	r4, #0
420047a6:	f108 0724 	add.w	r7, r8, #36	; 0x24
420047aa:	e004      	b.n	420047b6 <_printf_int_dec+0x4e>
420047ac:	f000 eb8e 	blx	42004ecc <__rt_udiv10>
420047b0:	3130      	adds	r1, #48	; 0x30
420047b2:	5539      	strb	r1, [r7, r4]
420047b4:	1c64      	adds	r4, r4, #1
420047b6:	2800      	cmp	r0, #0
420047b8:	d1f8      	bne.n	420047ac <_printf_int_dec+0x44>
420047ba:	4633      	mov	r3, r6
420047bc:	462a      	mov	r2, r5
420047be:	4621      	mov	r1, r4
420047c0:	4640      	mov	r0, r8
420047c2:	e8bd 41f0 	ldmia.w	sp!, {r4, r5, r6, r7, r8, lr}
420047c6:	f000 ba7f 	b.w	42004cc8 <_printf_int_common>
420047ca:	00000000 	andeq	r0, r0, r0
420047ce:	002d0000 	eoreq	r0, sp, r0
420047d2:	002b0000 	eoreq	r0, fp, r0
420047d6:	00200000 	eoreq	r0, r0, r0
	...

420047dc <_printf_int_hex>:
420047dc:	b570      	push	{r4, r5, r6, lr}
420047de:	4604      	mov	r4, r0
420047e0:	460d      	mov	r5, r1
420047e2:	4621      	mov	r1, r4
420047e4:	6810      	ldr	r0, [r2, #0]
420047e6:	f3af 8000 	nop.w
420047ea:	6821      	ldr	r1, [r4, #0]
420047ec:	0509      	lsls	r1, r1, #20
420047ee:	d502      	bpl.n	420047f6 <_printf_int_hex+0x1a>
420047f0:	4a10      	ldr	r2, [pc, #64]	; (42004834 <_printf_int_hex+0x58>)
420047f2:	447a      	add	r2, pc
420047f4:	e002      	b.n	420047fc <_printf_int_hex+0x20>
420047f6:	4a0f      	ldr	r2, [pc, #60]	; (42004834 <_printf_int_hex+0x58>)
420047f8:	447a      	add	r2, pc
420047fa:	320e      	adds	r2, #14
420047fc:	2100      	movs	r1, #0
420047fe:	f104 0324 	add.w	r3, r4, #36	; 0x24
42004802:	e007      	b.n	42004814 <_printf_int_hex+0x38>
42004804:	f000 060f 	and.w	r6, r0, #15
42004808:	ea4f 1010 	mov.w	r0, r0, lsr #4
4200480c:	5d96      	ldrb	r6, [r2, r6]
4200480e:	545e      	strb	r6, [r3, r1]
42004810:	f101 0101 	add.w	r1, r1, #1
42004814:	2800      	cmp	r0, #0
42004816:	d1f5      	bne.n	42004804 <_printf_int_hex+0x28>
42004818:	4603      	mov	r3, r0
4200481a:	6820      	ldr	r0, [r4, #0]
4200481c:	0700      	lsls	r0, r0, #28
4200481e:	d504      	bpl.n	4200482a <_printf_int_hex+0x4e>
42004820:	2d70      	cmp	r5, #112	; 0x70
42004822:	d002      	beq.n	4200482a <_printf_int_hex+0x4e>
42004824:	b109      	cbz	r1, 4200482a <_printf_int_hex+0x4e>
42004826:	3211      	adds	r2, #17
42004828:	2302      	movs	r3, #2
4200482a:	4620      	mov	r0, r4
4200482c:	e8bd 4070 	ldmia.w	sp!, {r4, r5, r6, lr}
42004830:	f000 ba4a 	b.w	42004cc8 <_printf_int_common>
42004834:	0000119a 	muleq	r0, sl, r1

42004838 <__printf>:
42004838:	e92d 5ff0 	stmdb	sp!, {r4, r5, r6, r7, r8, r9, sl, fp, ip, lr}
4200483c:	4604      	mov	r4, r0
4200483e:	4689      	mov	r9, r1
42004840:	f04f 0a00 	mov.w	sl, #0
42004844:	f8df b128 	ldr.w	fp, [pc, #296]	; 42004970 <__printf+0x138>
42004848:	44fb      	add	fp, pc
4200484a:	f8c0 a020 	str.w	sl, [r0, #32]
4200484e:	4620      	mov	r0, r4
42004850:	68e1      	ldr	r1, [r4, #12]
42004852:	4788      	blx	r1
42004854:	2800      	cmp	r0, #0
42004856:	d07c      	beq.n	42004952 <__printf+0x11a>
42004858:	2825      	cmp	r0, #37	; 0x25
4200485a:	d006      	beq.n	4200486a <__printf+0x32>
4200485c:	e9d4 2101 	ldrd	r2, r1, [r4, #4]
42004860:	4790      	blx	r2
42004862:	6a20      	ldr	r0, [r4, #32]
42004864:	1c40      	adds	r0, r0, #1
42004866:	6220      	str	r0, [r4, #32]
42004868:	e7f1      	b.n	4200484e <__printf+0x16>
4200486a:	2500      	movs	r5, #0
4200486c:	465f      	mov	r7, fp
4200486e:	4620      	mov	r0, r4
42004870:	68e1      	ldr	r1, [r4, #12]
42004872:	4788      	blx	r1
42004874:	2820      	cmp	r0, #32
42004876:	4606      	mov	r6, r0
42004878:	db08      	blt.n	4200488c <__printf+0x54>
4200487a:	2e31      	cmp	r6, #49	; 0x31
4200487c:	d206      	bcs.n	4200488c <__printf+0x54>
4200487e:	eb07 0006 	add.w	r0, r7, r6
42004882:	f810 0c20 	ldrb.w	r0, [r0, #-32]
42004886:	b108      	cbz	r0, 4200488c <__printf+0x54>
42004888:	4305      	orrs	r5, r0
4200488a:	e7f0      	b.n	4200486e <__printf+0x36>
4200488c:	07a8      	lsls	r0, r5, #30
4200488e:	d501      	bpl.n	42004894 <__printf+0x5c>
42004890:	f025 0504 	bic.w	r5, r5, #4
42004894:	f8c4 a01c 	str.w	sl, [r4, #28]
42004898:	2700      	movs	r7, #0
4200489a:	f8c4 a018 	str.w	sl, [r4, #24]
4200489e:	2e2a      	cmp	r6, #42	; 0x2a
420048a0:	d009      	beq.n	420048b6 <__printf+0x7e>
420048a2:	4630      	mov	r0, r6
420048a4:	f001 f868 	bl	42005978 <_is_digit>
420048a8:	b338      	cbz	r0, 420048fa <__printf+0xc2>
420048aa:	eb04 0887 	add.w	r8, r4, r7, lsl #2
420048ae:	3e30      	subs	r6, #48	; 0x30
420048b0:	f8c8 6018 	str.w	r6, [r8, #24]
420048b4:	e019      	b.n	420048ea <__printf+0xb2>
420048b6:	f859 1b04 	ldr.w	r1, [r9], #4
420048ba:	4620      	mov	r0, r4
420048bc:	eb04 0287 	add.w	r2, r4, r7, lsl #2
420048c0:	6191      	str	r1, [r2, #24]
420048c2:	68e1      	ldr	r1, [r4, #12]
420048c4:	4788      	blx	r1
420048c6:	2f01      	cmp	r7, #1
420048c8:	4606      	mov	r6, r0
420048ca:	d118      	bne.n	420048fe <__printf+0xc6>
420048cc:	69e0      	ldr	r0, [r4, #28]
420048ce:	2800      	cmp	r0, #0
420048d0:	da20      	bge.n	42004914 <__printf+0xdc>
420048d2:	f025 0520 	bic.w	r5, r5, #32
420048d6:	e01d      	b.n	42004914 <__printf+0xdc>
420048d8:	f8d8 0018 	ldr.w	r0, [r8, #24]
420048dc:	eb00 0080 	add.w	r0, r0, r0, lsl #2
420048e0:	eb06 0040 	add.w	r0, r6, r0, lsl #1
420048e4:	3830      	subs	r0, #48	; 0x30
420048e6:	f8c8 0018 	str.w	r0, [r8, #24]
420048ea:	4620      	mov	r0, r4
420048ec:	68e1      	ldr	r1, [r4, #12]
420048ee:	4788      	blx	r1
420048f0:	4606      	mov	r6, r0
420048f2:	f001 f841 	bl	42005978 <_is_digit>
420048f6:	2800      	cmp	r0, #0
420048f8:	d1ee      	bne.n	420048d8 <__printf+0xa0>
420048fa:	2f01      	cmp	r7, #1
420048fc:	d00a      	beq.n	42004914 <__printf+0xdc>
420048fe:	2e2e      	cmp	r6, #46	; 0x2e
42004900:	d108      	bne.n	42004914 <__printf+0xdc>
42004902:	4620      	mov	r0, r4
42004904:	68e1      	ldr	r1, [r4, #12]
42004906:	4788      	blx	r1
42004908:	1c7f      	adds	r7, r7, #1
4200490a:	4606      	mov	r6, r0
4200490c:	2f02      	cmp	r7, #2
4200490e:	f045 0520 	orr.w	r5, r5, #32
42004912:	dbc4      	blt.n	4200489e <__printf+0x66>
42004914:	69a0      	ldr	r0, [r4, #24]
42004916:	2800      	cmp	r0, #0
42004918:	da03      	bge.n	42004922 <__printf+0xea>
4200491a:	4240      	negs	r0, r0
4200491c:	f045 0501 	orr.w	r5, r5, #1
42004920:	61a0      	str	r0, [r4, #24]
42004922:	07e8      	lsls	r0, r5, #31
42004924:	d001      	beq.n	4200492a <__printf+0xf2>
42004926:	f025 0510 	bic.w	r5, r5, #16
4200492a:	b196      	cbz	r6, 42004952 <__printf+0x11a>
4200492c:	f1a6 0041 	sub.w	r0, r6, #65	; 0x41
42004930:	2819      	cmp	r0, #25
42004932:	d802      	bhi.n	4200493a <__printf+0x102>
42004934:	3620      	adds	r6, #32
42004936:	f445 6500 	orr.w	r5, r5, #2048	; 0x800
4200493a:	464a      	mov	r2, r9
4200493c:	4631      	mov	r1, r6
4200493e:	4620      	mov	r0, r4
42004940:	6025      	str	r5, [r4, #0]
42004942:	464d      	mov	r5, r9
42004944:	f7fb fc06 	bl	42000154 <_printf_d>
42004948:	b160      	cbz	r0, 42004964 <__printf+0x12c>
4200494a:	2801      	cmp	r0, #1
4200494c:	d007      	beq.n	4200495e <__printf+0x126>
4200494e:	1ded      	adds	r5, r5, #7
42004950:	e000      	b.n	42004954 <__printf+0x11c>
42004952:	e009      	b.n	42004968 <__printf+0x130>
42004954:	f025 0007 	bic.w	r0, r5, #7
42004958:	f100 0908 	add.w	r9, r0, #8
4200495c:	e777      	b.n	4200484e <__printf+0x16>
4200495e:	f105 0904 	add.w	r9, r5, #4
42004962:	e774      	b.n	4200484e <__printf+0x16>
42004964:	4630      	mov	r0, r6
42004966:	e779      	b.n	4200485c <__printf+0x24>
42004968:	6a20      	ldr	r0, [r4, #32]
4200496a:	e8bd 9ff0 	ldmia.w	sp!, {r4, r5, r6, r7, r8, r9, sl, fp, ip, pc}
4200496e:	116c0000 	cmnne	ip, r0
	...

42004974 <strcpy>:
42004974:	ea40 0301 	orr.w	r3, r0, r1
42004978:	4602      	mov	r2, r0
4200497a:	b530      	push	{r4, r5, lr}
4200497c:	079b      	lsls	r3, r3, #30
4200497e:	d10f      	bne.n	420049a0 <strcpy+0x2c>
42004980:	f04f 3401 	mov.w	r4, #16843009	; 0x1010101
42004984:	e000      	b.n	42004988 <strcpy+0x14>
42004986:	c208      	stmia	r2!, {r3}
42004988:	c908      	ldmia	r1!, {r3}
4200498a:	fac4 f553 	uqsub8	r5, r4, r3
4200498e:	2d00      	cmp	r5, #0
42004990:	d0f9      	beq.n	42004986 <strcpy+0x12>
42004992:	f013 01ff 	ands.w	r1, r3, #255	; 0xff
42004996:	f802 1b01 	strb.w	r1, [r2], #1
4200499a:	d00d      	beq.n	420049b8 <strcpy+0x44>
4200499c:	0a1b      	lsrs	r3, r3, #8
4200499e:	e7f8      	b.n	42004992 <strcpy+0x1e>
420049a0:	f811 3b01 	ldrb.w	r3, [r1], #1
420049a4:	2b00      	cmp	r3, #0
420049a6:	f802 3b01 	strb.w	r3, [r2], #1
420049aa:	d005      	beq.n	420049b8 <strcpy+0x44>
420049ac:	f811 3b01 	ldrb.w	r3, [r1], #1
420049b0:	2b00      	cmp	r3, #0
420049b2:	f802 3b01 	strb.w	r3, [r2], #1
420049b6:	d1f3      	bne.n	420049a0 <strcpy+0x2c>
420049b8:	bd30      	pop	{r4, r5, pc}

420049ba <strlen>:
420049ba:	1c42      	adds	r2, r0, #1
420049bc:	e002      	b.n	420049c4 <strlen+0xa>
420049be:	f810 1b01 	ldrb.w	r1, [r0], #1
420049c2:	b169      	cbz	r1, 420049e0 <strlen+0x26>
420049c4:	0781      	lsls	r1, r0, #30
420049c6:	d1fa      	bne.n	420049be <strlen+0x4>
420049c8:	f04f 3301 	mov.w	r3, #16843009	; 0x1010101
420049cc:	c802      	ldmia	r0!, {r1}
420049ce:	fac3 f151 	uqsub8	r1, r3, r1
420049d2:	2900      	cmp	r1, #0
420049d4:	d0fa      	beq.n	420049cc <strlen+0x12>
420049d6:	1a80      	subs	r0, r0, r2
420049d8:	060a      	lsls	r2, r1, #24
420049da:	d003      	beq.n	420049e4 <strlen+0x2a>
420049dc:	1ec0      	subs	r0, r0, #3
420049de:	4770      	bx	lr
420049e0:	1a80      	subs	r0, r0, r2
420049e2:	4770      	bx	lr
420049e4:	040a      	lsls	r2, r1, #16
420049e6:	d001      	beq.n	420049ec <strlen+0x32>
420049e8:	1e80      	subs	r0, r0, #2
420049ea:	4770      	bx	lr
420049ec:	0209      	lsls	r1, r1, #8
420049ee:	d0fc      	beq.n	420049ea <strlen+0x30>
420049f0:	1e40      	subs	r0, r0, #1
420049f2:	4770      	bx	lr

420049f4 <__aeabi_memset>:
420049f4:	f002 03ff 	and.w	r3, r2, #255	; 0xff
420049f8:	ea43 2203 	orr.w	r2, r3, r3, lsl #8
420049fc:	ea42 4202 	orr.w	r2, r2, r2, lsl #16
42004a00:	f000 ba06 	b.w	42004e10 <_memset>

42004a04 <__aeabi_memclr4>:
42004a04:	e3a02000 	mov	r2, #0

42004a08 <_memset_w>:
42004a08:	ed2d0b08 	vpush	{d0-d3}
42004a0c:	e2511020 	subs	r1, r1, #32
42004a10:	eea02b10 	vdup.32	q0, r2
42004a14:	eea22b10 	vdup.32	q1, r2
42004a18:	2ca00b08 	vstmiacs	r0!, {d0-d3}
42004a1c:	22511020 	subscs	r1, r1, #32
42004a20:	2afffffc 	bcs	42004a18 <_memset_w+0x10>
42004a24:	e1b01e01 	lsls	r1, r1, #28
42004a28:	2ca00b04 	vstmiacs	r0!, {d0-d1}
42004a2c:	4ca00b02 	vstmiami	r0!, {d0}
42004a30:	e1b01101 	lsls	r1, r1, #2
42004a34:	24802004 	strcs	r2, [r0], #4
42004a38:	0cbd0b08 	vpopeq	{d0-d3}
42004a3c:	012fff1e 	bxeq	lr
42004a40:	40c020b2 	strhmi	r2, [r0], #2
42004a44:	e3110101 	tst	r1, #1073741824	; 0x40000000
42004a48:	14c02001 	strbne	r2, [r0], #1
42004a4c:	ecbd0b08 	vpop	{d0-d3}
42004a50:	e12fff1e 	bx	lr

42004a54 <__aeabi_memcpy>:
42004a54:	e3520003 	cmp	r2, #3
42004a58:	9a000033 	bls	42004b2c <_memcpy_lastbytes>
42004a5c:	e210c003 	ands	ip, r0, #3
42004a60:	0a000008 	beq	42004a88 <__aeabi_memcpy+0x34>
42004a64:	e4d13001 	ldrb	r3, [r1], #1
42004a68:	e35c0002 	cmp	ip, #2
42004a6c:	e082200c 	add	r2, r2, ip
42004a70:	94d1c001 	ldrbls	ip, [r1], #1
42004a74:	e4c03001 	strb	r3, [r0], #1
42004a78:	34d13001 	ldrbcc	r3, [r1], #1
42004a7c:	94c0c001 	strbls	ip, [r0], #1
42004a80:	e2422004 	sub	r2, r2, #4
42004a84:	34c03001 	strbcc	r3, [r0], #1
42004a88:	e2113003 	ands	r3, r1, #3
42004a8c:	0a0000ef 	beq	42004e50 <__aeabi_memcpy4>
42004a90:	e3520042 	cmp	r2, #66	; 0x42
42004a94:	3a00000f 	bcc	42004ad8 <__aeabi_memcpy+0x84>
42004a98:	ed2d0b08 	vpush	{d0-d3}
42004a9c:	e2522060 	subs	r2, r2, #96	; 0x60
42004aa0:	3a000004 	bcc	42004ab8 <__aeabi_memcpy+0x64>
42004aa4:	f5d1f040 	pld	[r1, #64]	; 0x40
42004aa8:	f421028d 	vld1.32	{d0-d3}, [r1]!
42004aac:	e2522020 	subs	r2, r2, #32
42004ab0:	f400028d 	vst1.32	{d0-d3}, [r0]!
42004ab4:	eafffff9 	b	42004aa0 <__aeabi_memcpy+0x4c>
42004ab8:	e2922040 	adds	r2, r2, #64	; 0x40
42004abc:	3a000003 	bcc	42004ad0 <__aeabi_memcpy+0x7c>
42004ac0:	f421028d 	vld1.32	{d0-d3}, [r1]!
42004ac4:	e2522020 	subs	r2, r2, #32
42004ac8:	f400028d 	vst1.32	{d0-d3}, [r0]!
42004acc:	eafffffa 	b	42004abc <__aeabi_memcpy+0x68>
42004ad0:	ecbd0b08 	vpop	{d0-d3}
42004ad4:	e2822020 	add	r2, r2, #32
42004ad8:	e2522048 	subs	r2, r2, #72	; 0x48
42004adc:	3a000006 	bcc	42004afc <__aeabi_memcpy+0xa8>
42004ae0:	f5d1f040 	pld	[r1, #64]	; 0x40
42004ae4:	e4913004 	ldr	r3, [r1], #4
42004ae8:	e2522008 	subs	r2, r2, #8
42004aec:	e491c004 	ldr	ip, [r1], #4
42004af0:	e4803004 	str	r3, [r0], #4
42004af4:	e480c004 	str	ip, [r0], #4
42004af8:	eafffff7 	b	42004adc <__aeabi_memcpy+0x88>
42004afc:	e2922040 	adds	r2, r2, #64	; 0x40
42004b00:	3a000005 	bcc	42004b1c <__aeabi_memcpy+0xc8>
42004b04:	e4913004 	ldr	r3, [r1], #4
42004b08:	e2522008 	subs	r2, r2, #8
42004b0c:	e491c004 	ldr	ip, [r1], #4
42004b10:	e4803004 	str	r3, [r0], #4
42004b14:	e480c004 	str	ip, [r0], #4
42004b18:	eafffff8 	b	42004b00 <__aeabi_memcpy+0xac>
42004b1c:	e2922004 	adds	r2, r2, #4
42004b20:	54913004 	ldrpl	r3, [r1], #4
42004b24:	54803004 	strpl	r3, [r0], #4
42004b28:	e1a00000 	nop			; (mov r0, r0)

42004b2c <_memcpy_lastbytes>:
42004b2c:	e1b02f82 	lsls	r2, r2, #31
42004b30:	24d13001 	ldrbcs	r3, [r1], #1
42004b34:	24d1c001 	ldrbcs	ip, [r1], #1
42004b38:	44d12001 	ldrbmi	r2, [r1], #1
42004b3c:	24c03001 	strbcs	r3, [r0], #1
42004b40:	24c0c001 	strbcs	ip, [r0], #1
42004b44:	44c02001 	strbmi	r2, [r0], #1
42004b48:	e12fff1e 	bx	lr

42004b4c <__aeabi_idiv>:
42004b4c:	e1903001 	orrs	r3, r0, r1
42004b50:	4a000021 	bmi	42004bdc <__arm_div2+0x1c>
42004b54:	e3b02000 	movs	r2, #0
42004b58:	e07130a0 	rsbs	r3, r1, r0, lsr #1
42004b5c:	3a00001a 	bcc	42004bcc <__arm_div2+0xc>
42004b60:	e0713220 	rsbs	r3, r1, r0, lsr #4
42004b64:	3a00000f 	bcc	42004ba8 <__arm_div5+0xc>
42004b68:	e0713420 	rsbs	r3, r1, r0, lsr #8
42004b6c:	3a000001 	bcc	42004b78 <__arm_div8>
42004b70:	e3a0c000 	mov	ip, #0
42004b74:	ea000020 	b	42004bfc <__arm_div_large>

42004b78 <__arm_div8>:
42004b78:	e07133a0 	rsbs	r3, r1, r0, lsr #7
42004b7c:	20400381 	subcs	r0, r0, r1, lsl #7
42004b80:	e0b22002 	adcs	r2, r2, r2
42004b84:	e0713320 	rsbs	r3, r1, r0, lsr #6
42004b88:	20400301 	subcs	r0, r0, r1, lsl #6
42004b8c:	e0b22002 	adcs	r2, r2, r2
42004b90:	e07132a0 	rsbs	r3, r1, r0, lsr #5
42004b94:	20400281 	subcs	r0, r0, r1, lsl #5
42004b98:	e0b22002 	adcs	r2, r2, r2

42004b9c <__arm_div5>:
42004b9c:	e0713220 	rsbs	r3, r1, r0, lsr #4
42004ba0:	20400201 	subcs	r0, r0, r1, lsl #4
42004ba4:	e0b22002 	adcs	r2, r2, r2
42004ba8:	e07131a0 	rsbs	r3, r1, r0, lsr #3
42004bac:	20400181 	subcs	r0, r0, r1, lsl #3
42004bb0:	e0b22002 	adcs	r2, r2, r2
42004bb4:	e0713120 	rsbs	r3, r1, r0, lsr #2
42004bb8:	20400101 	subcs	r0, r0, r1, lsl #2
42004bbc:	e0b22002 	adcs	r2, r2, r2

42004bc0 <__arm_div2>:
42004bc0:	e07130a0 	rsbs	r3, r1, r0, lsr #1
42004bc4:	20400081 	subcs	r0, r0, r1, lsl #1
42004bc8:	e0b22002 	adcs	r2, r2, r2
42004bcc:	e0501001 	subs	r1, r0, r1
42004bd0:	31a01000 	movcc	r1, r0
42004bd4:	e0a20002 	adc	r0, r2, r2
42004bd8:	e12fff1e 	bx	lr
42004bdc:	e2112102 	ands	r2, r1, #-2147483648	; 0x80000000
42004be0:	42611000 	rsbmi	r1, r1, #0
42004be4:	e032c040 	eors	ip, r2, r0, asr #32
42004be8:	22600000 	rsbcs	r0, r0, #0
42004bec:	e0713220 	rsbs	r3, r1, r0, lsr #4
42004bf0:	3a00001d 	bcc	42004c6c <__arm_div_large+0x70>
42004bf4:	e0713420 	rsbs	r3, r1, r0, lsr #8
42004bf8:	3a00000f 	bcc	42004c3c <__arm_div_large+0x40>

42004bfc <__arm_div_large>:
42004bfc:	e1a01301 	lsl	r1, r1, #6
42004c00:	e0713420 	rsbs	r3, r1, r0, lsr #8
42004c04:	e382233f 	orr	r2, r2, #-67108864	; 0xfc000000
42004c08:	3a00000b 	bcc	42004c3c <__arm_div_large+0x40>
42004c0c:	e1a01301 	lsl	r1, r1, #6
42004c10:	e0713420 	rsbs	r3, r1, r0, lsr #8
42004c14:	e382263f 	orr	r2, r2, #66060288	; 0x3f00000
42004c18:	3a000007 	bcc	42004c3c <__arm_div_large+0x40>
42004c1c:	e1a01301 	lsl	r1, r1, #6
42004c20:	e0713420 	rsbs	r3, r1, r0, lsr #8
42004c24:	e382293f 	orr	r2, r2, #1032192	; 0xfc000
42004c28:	21a01301 	lslcs	r1, r1, #6
42004c2c:	23822c3f 	orrcs	r2, r2, #16128	; 0x3f00
42004c30:	e2713000 	rsbs	r3, r1, #0
42004c34:	2a00001d 	bcs	42004cb0 <__arm_div_large+0xb4>
42004c38:	21a01321 	lsrcs	r1, r1, #6
42004c3c:	e07133a0 	rsbs	r3, r1, r0, lsr #7
42004c40:	20400381 	subcs	r0, r0, r1, lsl #7
42004c44:	e0b22002 	adcs	r2, r2, r2
42004c48:	e0713320 	rsbs	r3, r1, r0, lsr #6
42004c4c:	20400301 	subcs	r0, r0, r1, lsl #6
42004c50:	e0b22002 	adcs	r2, r2, r2
42004c54:	e07132a0 	rsbs	r3, r1, r0, lsr #5
42004c58:	20400281 	subcs	r0, r0, r1, lsl #5
42004c5c:	e0b22002 	adcs	r2, r2, r2
42004c60:	e0713220 	rsbs	r3, r1, r0, lsr #4
42004c64:	20400201 	subcs	r0, r0, r1, lsl #4
42004c68:	e0b22002 	adcs	r2, r2, r2
42004c6c:	e07131a0 	rsbs	r3, r1, r0, lsr #3
42004c70:	20400181 	subcs	r0, r0, r1, lsl #3
42004c74:	e0b22002 	adcs	r2, r2, r2
42004c78:	e0713120 	rsbs	r3, r1, r0, lsr #2
42004c7c:	20400101 	subcs	r0, r0, r1, lsl #2
42004c80:	e0b22002 	adcs	r2, r2, r2
42004c84:	2affffeb 	bcs	42004c38 <__arm_div_large+0x3c>
42004c88:	e07130a0 	rsbs	r3, r1, r0, lsr #1
42004c8c:	20400081 	subcs	r0, r0, r1, lsl #1
42004c90:	e0b22002 	adcs	r2, r2, r2
42004c94:	e0501001 	subs	r1, r0, r1
42004c98:	31a01000 	movcc	r1, r0
42004c9c:	e0a20002 	adc	r0, r2, r2
42004ca0:	e1b0cfcc 	asrs	ip, ip, #31
42004ca4:	42600000 	rsbmi	r0, r0, #0
42004ca8:	22611000 	rsbcs	r1, r1, #0
42004cac:	e12fff1e 	bx	lr
42004cb0:	e1b0cfcc 	asrs	ip, ip, #31
42004cb4:	42600000 	rsbmi	r0, r0, #0
42004cb8:	e92d4001 	push	{r0, lr}
42004cbc:	e3b00000 	movs	r0, #0
42004cc0:	e1a00000 	nop			; (mov r0, r0)
42004cc4:	e8bd8002 	pop	{r1, pc}

42004cc8 <_printf_int_common>:
42004cc8:	e92d 47f0 	stmdb	sp!, {r4, r5, r6, r7, r8, r9, sl, lr}
42004ccc:	460d      	mov	r5, r1
42004cce:	4604      	mov	r4, r0
42004cd0:	4692      	mov	sl, r2
42004cd2:	4699      	mov	r9, r3
42004cd4:	f100 0824 	add.w	r8, r0, #36	; 0x24
42004cd8:	6801      	ldr	r1, [r0, #0]
42004cda:	0688      	lsls	r0, r1, #26
42004cdc:	d504      	bpl.n	42004ce8 <_printf_int_common+0x20>
42004cde:	69e0      	ldr	r0, [r4, #28]
42004ce0:	f021 0110 	bic.w	r1, r1, #16
42004ce4:	6021      	str	r1, [r4, #0]
42004ce6:	e000      	b.n	42004cea <_printf_int_common+0x22>
42004ce8:	2001      	movs	r0, #1
42004cea:	42a8      	cmp	r0, r5
42004cec:	dd02      	ble.n	42004cf4 <_printf_int_common+0x2c>
42004cee:	eba0 0705 	sub.w	r7, r0, r5
42004cf2:	e000      	b.n	42004cf6 <_printf_int_common+0x2e>
42004cf4:	2700      	movs	r7, #0
42004cf6:	69a1      	ldr	r1, [r4, #24]
42004cf8:	eb07 0205 	add.w	r2, r7, r5
42004cfc:	eb02 0009 	add.w	r0, r2, r9
42004d00:	eba1 0000 	sub.w	r0, r1, r0
42004d04:	61a0      	str	r0, [r4, #24]
42004d06:	6820      	ldr	r0, [r4, #0]
42004d08:	06c0      	lsls	r0, r0, #27
42004d0a:	d402      	bmi.n	42004d12 <_printf_int_common+0x4a>
42004d0c:	4620      	mov	r0, r4
42004d0e:	f7ff fcd9 	bl	420046c4 <_printf_pre_padding>
42004d12:	2600      	movs	r6, #0
42004d14:	e008      	b.n	42004d28 <_printf_int_common+0x60>
42004d16:	e9d4 2101 	ldrd	r2, r1, [r4, #4]
42004d1a:	f81a 0006 	ldrb.w	r0, [sl, r6]
42004d1e:	4790      	blx	r2
42004d20:	6a20      	ldr	r0, [r4, #32]
42004d22:	1c40      	adds	r0, r0, #1
42004d24:	1c76      	adds	r6, r6, #1
42004d26:	6220      	str	r0, [r4, #32]
42004d28:	454e      	cmp	r6, r9
42004d2a:	dbf4      	blt.n	42004d16 <_printf_int_common+0x4e>
42004d2c:	6820      	ldr	r0, [r4, #0]
42004d2e:	06c0      	lsls	r0, r0, #27
42004d30:	d50a      	bpl.n	42004d48 <_printf_int_common+0x80>
42004d32:	4620      	mov	r0, r4
42004d34:	f7ff fcc6 	bl	420046c4 <_printf_pre_padding>
42004d38:	e006      	b.n	42004d48 <_printf_int_common+0x80>
42004d3a:	e9d4 2101 	ldrd	r2, r1, [r4, #4]
42004d3e:	2030      	movs	r0, #48	; 0x30
42004d40:	4790      	blx	r2
42004d42:	6a20      	ldr	r0, [r4, #32]
42004d44:	1c40      	adds	r0, r0, #1
42004d46:	6220      	str	r0, [r4, #32]
42004d48:	1e38      	subs	r0, r7, #0
42004d4a:	f1a7 0701 	sub.w	r7, r7, #1
42004d4e:	dcf4      	bgt.n	42004d3a <_printf_int_common+0x72>
42004d50:	e007      	b.n	42004d62 <_printf_int_common+0x9a>
42004d52:	e9d4 2101 	ldrd	r2, r1, [r4, #4]
42004d56:	f818 0005 	ldrb.w	r0, [r8, r5]
42004d5a:	4790      	blx	r2
42004d5c:	6a20      	ldr	r0, [r4, #32]
42004d5e:	1c40      	adds	r0, r0, #1
42004d60:	6220      	str	r0, [r4, #32]
42004d62:	1e28      	subs	r0, r5, #0
42004d64:	f1a5 0501 	sub.w	r5, r5, #1
42004d68:	dcf3      	bgt.n	42004d52 <_printf_int_common+0x8a>
42004d6a:	4620      	mov	r0, r4
42004d6c:	f7ff fcc1 	bl	420046f2 <_printf_post_padding>
42004d70:	6820      	ldr	r0, [r4, #0]
42004d72:	0600      	lsls	r0, r0, #24
42004d74:	d502      	bpl.n	42004d7c <_printf_int_common+0xb4>
42004d76:	2002      	movs	r0, #2
42004d78:	e8bd 87f0 	ldmia.w	sp!, {r4, r5, r6, r7, r8, r9, sl, pc}
42004d7c:	2001      	movs	r0, #1
42004d7e:	e7fb      	b.n	42004d78 <_printf_int_common+0xb0>

42004d80 <_printf_input_char>:
42004d80:	6901      	ldr	r1, [r0, #16]
42004d82:	1c4a      	adds	r2, r1, #1
42004d84:	6102      	str	r2, [r0, #16]
42004d86:	7808      	ldrb	r0, [r1, #0]
42004d88:	4770      	bx	lr

42004d8a <_printf_char_common>:
42004d8a:	b500      	push	{lr}
42004d8c:	b08f      	sub	sp, #60	; 0x3c
42004d8e:	e9cd 3101 	strd	r3, r1, [sp, #4]
42004d92:	2100      	movs	r1, #0
42004d94:	9105      	str	r1, [sp, #20]
42004d96:	4905      	ldr	r1, [pc, #20]	; (42004dac <_printf_char_common+0x22>)
42004d98:	4479      	add	r1, pc
42004d9a:	e9cd 1003 	strd	r1, r0, [sp, #12]
42004d9e:	4611      	mov	r1, r2
42004da0:	4668      	mov	r0, sp
42004da2:	f7ff fd49 	bl	42004838 <__printf>
42004da6:	b00f      	add	sp, #60	; 0x3c
42004da8:	bd00      	pop	{pc}
42004daa:	ffe50000 			; <UNDEFINED> instruction: 0xffe50000
42004dae:	680affff 	stmdavs	sl, {r0, r1, r2, r3, r4, r5, r6, r7, r8, r9, sl, fp, ip, sp, lr, pc}

42004db0 <_sputc>:
42004db0:	680a      	ldr	r2, [r1, #0]
42004db2:	f802 0b01 	strb.w	r0, [r2], #1
42004db6:	600a      	str	r2, [r1, #0]
42004db8:	4770      	bx	lr

42004dba <_printf_cs_common>:
42004dba:	b510      	push	{r4, lr}
42004dbc:	6943      	ldr	r3, [r0, #20]
42004dbe:	b113      	cbz	r3, 42004dc6 <_printf_cs_common+0xc>
42004dc0:	f3af 8000 	nop.w
42004dc4:	e001      	b.n	42004dca <_printf_cs_common+0x10>
42004dc6:	f7ff fca6 	bl	42004716 <_printf_str>
42004dca:	2001      	movs	r0, #1
42004dcc:	bd10      	pop	{r4, pc}

42004dce <_printf_char>:
42004dce:	6812      	ldr	r2, [r2, #0]
42004dd0:	f100 0124 	add.w	r1, r0, #36	; 0x24
42004dd4:	700a      	strb	r2, [r1, #0]
42004dd6:	2200      	movs	r2, #0
42004dd8:	704a      	strb	r2, [r1, #1]
42004dda:	2201      	movs	r2, #1
42004ddc:	e7ed      	b.n	42004dba <_printf_cs_common>

42004dde <_printf_string>:
42004dde:	6811      	ldr	r1, [r2, #0]
42004de0:	f04f 32ff 	mov.w	r2, #4294967295	; 0xffffffff
42004de4:	e7e9      	b.n	42004dba <_printf_cs_common>
	...

42004de8 <_printf_char_file>:
42004de8:	4b07      	ldr	r3, [pc, #28]	; (42004e08 <_printf_char_file+0x20>)
42004dea:	b570      	push	{r4, r5, r6, lr}
42004dec:	460c      	mov	r4, r1
42004dee:	447b      	add	r3, pc
42004df0:	f7ff ffcb 	bl	42004d8a <_printf_char_common>
42004df4:	4605      	mov	r5, r0
42004df6:	4620      	mov	r0, r4
42004df8:	f000 f87e 	bl	42004ef8 <ferror>
42004dfc:	b110      	cbz	r0, 42004e04 <_printf_char_file+0x1c>
42004dfe:	f04f 30ff 	mov.w	r0, #4294967295	; 0xffffffff
42004e02:	bd70      	pop	{r4, r5, r6, pc}
42004e04:	4628      	mov	r0, r5
42004e06:	bd70      	pop	{r4, r5, r6, pc}
42004e08:	fffff73a 			; <UNDEFINED> instruction: 0xfffff73a

42004e0c <__aeabi_memclr>:
42004e0c:	f04f 0200 	mov.w	r2, #0

42004e10 <_memset>:
42004e10:	2904      	cmp	r1, #4
42004e12:	f0c0 8012 	bcc.w	42004e3a <_memset+0x2a>
42004e16:	f010 0c03 	ands.w	ip, r0, #3
42004e1a:	f000 85a9 	beq.w	42005970 <FreeRTOS_IRQ_Handler+0x178>
42004e1e:	f1cc 0c04 	rsb	ip, ip, #4
42004e22:	f1bc 0f02 	cmp.w	ip, #2
42004e26:	bf18      	it	ne
42004e28:	f800 2b01 	strbne.w	r2, [r0], #1
42004e2c:	bfa8      	it	ge
42004e2e:	f820 2b02 	strhge.w	r2, [r0], #2
42004e32:	eba1 010c 	sub.w	r1, r1, ip
42004e36:	f000 bd9b 	b.w	42005970 <FreeRTOS_IRQ_Handler+0x178>
42004e3a:	ea5f 7cc1 	movs.w	ip, r1, lsl #31
42004e3e:	bf24      	itt	cs
42004e40:	f800 2b01 	strbcs.w	r2, [r0], #1
42004e44:	f800 2b01 	strbcs.w	r2, [r0], #1
42004e48:	bf48      	it	mi
42004e4a:	f800 2b01 	strbmi.w	r2, [r0], #1
42004e4e:	4770      	bx	lr

42004e50 <__aeabi_memcpy4>:
42004e50:	e92d41f0 	push	{r4, r5, r6, r7, r8, lr}
42004e54:	e2522020 	subs	r2, r2, #32
42004e58:	3a00000b 	bcc	42004e8c <__aeabi_memcpy4+0x3c>
42004e5c:	e3520080 	cmp	r2, #128	; 0x80
42004e60:	3a000005 	bcc	42004e7c <__aeabi_memcpy4+0x2c>
42004e64:	f5d1f080 	pld	[r1, #128]	; 0x80
42004e68:	e8b151f8 	ldm	r1!, {r3, r4, r5, r6, r7, r8, ip, lr}
42004e6c:	e2422020 	sub	r2, r2, #32
42004e70:	e3520080 	cmp	r2, #128	; 0x80
42004e74:	e8a051f8 	stmia	r0!, {r3, r4, r5, r6, r7, r8, ip, lr}
42004e78:	2afffff9 	bcs	42004e64 <__aeabi_memcpy4+0x14>
42004e7c:	e8b151f8 	ldm	r1!, {r3, r4, r5, r6, r7, r8, ip, lr}
42004e80:	e2522020 	subs	r2, r2, #32
42004e84:	e8a051f8 	stmia	r0!, {r3, r4, r5, r6, r7, r8, ip, lr}
42004e88:	2afffffb 	bcs	42004e7c <__aeabi_memcpy4+0x2c>
42004e8c:	e1b0ce02 	lsls	ip, r2, #28
42004e90:	28b15018 	ldmcs	r1!, {r3, r4, ip, lr}
42004e94:	28a05018 	stmiacs	r0!, {r3, r4, ip, lr}
42004e98:	48b10018 	ldmmi	r1!, {r3, r4}
42004e9c:	48a00018 	stmiami	r0!, {r3, r4}
42004ea0:	e8bd41f0 	pop	{r4, r5, r6, r7, r8, lr}
42004ea4:	e1b0cf02 	lsls	ip, r2, #30
42004ea8:	24913004 	ldrcs	r3, [r1], #4
42004eac:	24803004 	strcs	r3, [r0], #4
42004eb0:	012fff1e 	bxeq	lr

42004eb4 <_memcpy_lastbytes_aligned>:
42004eb4:	e1b02f82 	lsls	r2, r2, #31
42004eb8:	20d130b2 	ldrhcs	r3, [r1], #2
42004ebc:	44d12001 	ldrbmi	r2, [r1], #1
42004ec0:	20c030b2 	strhcs	r3, [r0], #2
42004ec4:	44c02001 	strbmi	r2, [r0], #1
42004ec8:	e12fff1e 	bx	lr

42004ecc <__rt_udiv10>:
42004ecc:	e240100a 	sub	r1, r0, #10
42004ed0:	e0400120 	sub	r0, r0, r0, lsr #2
42004ed4:	e0800220 	add	r0, r0, r0, lsr #4
42004ed8:	e0800420 	add	r0, r0, r0, lsr #8
42004edc:	e0800820 	add	r0, r0, r0, lsr #16
42004ee0:	e1a001a0 	lsr	r0, r0, #3
42004ee4:	e0802100 	add	r2, r0, r0, lsl #2
42004ee8:	e0511082 	subs	r1, r1, r2, lsl #1
42004eec:	52800001 	addpl	r0, r0, #1
42004ef0:	4281100a 	addmi	r1, r1, #10
42004ef4:	e12fff1e 	bx	lr

42004ef8 <ferror>:
42004ef8:	68c0      	ldr	r0, [r0, #12]
42004efa:	f000 0080 	and.w	r0, r0, #128	; 0x80
42004efe:	4770      	bx	lr

42004f00 <_initio>:
42004f00:	b510      	push	{r4, lr}
42004f02:	4842      	ldr	r0, [pc, #264]	; (4200500c <_terminateio+0x3a>)
42004f04:	2150      	movs	r1, #80	; 0x50
42004f06:	f7ff ed7e 	blx	42004a04 <__aeabi_memclr4>
42004f0a:	4841      	ldr	r0, [pc, #260]	; (42005010 <_terminateio+0x3e>)
42004f0c:	2150      	movs	r1, #80	; 0x50
42004f0e:	f7ff ed7a 	blx	42004a04 <__aeabi_memclr4>
42004f12:	4840      	ldr	r0, [pc, #256]	; (42005014 <_terminateio+0x42>)
42004f14:	2150      	movs	r1, #80	; 0x50
42004f16:	f7ff ed76 	blx	42004a04 <__aeabi_memclr4>
42004f1a:	483f      	ldr	r0, [pc, #252]	; (42005018 <_terminateio+0x46>)
42004f1c:	493b      	ldr	r1, [pc, #236]	; (4200500c <_terminateio+0x3a>)
42004f1e:	4b3c      	ldr	r3, [pc, #240]	; (42005010 <_terminateio+0x3e>)
42004f20:	4a3f      	ldr	r2, [pc, #252]	; (42005020 <_terminateio+0x4e>)
42004f22:	6001      	str	r1, [r0, #0]
42004f24:	483d      	ldr	r0, [pc, #244]	; (4200501c <_terminateio+0x4a>)
42004f26:	6003      	str	r3, [r0, #0]
42004f28:	483a      	ldr	r0, [pc, #232]	; (42005014 <_terminateio+0x42>)
42004f2a:	6010      	str	r0, [r2, #0]
42004f2c:	1c5a      	adds	r2, r3, #1
42004f2e:	64ca      	str	r2, [r1, #76]	; 0x4c
42004f30:	1c41      	adds	r1, r0, #1
42004f32:	64d9      	str	r1, [r3, #76]	; 0x4c
42004f34:	2101      	movs	r1, #1
42004f36:	64c1      	str	r1, [r0, #76]	; 0x4c
42004f38:	483b      	ldr	r0, [pc, #236]	; (42005028 <_terminateio+0x56>)
42004f3a:	4a34      	ldr	r2, [pc, #208]	; (4200500c <_terminateio+0x3a>)
42004f3c:	a139      	add	r1, pc, #228	; (adr r1, 42005024 <_terminateio+0x52>)
42004f3e:	4478      	add	r0, pc
42004f40:	f000 f8f8 	bl	42005134 <freopen>
42004f44:	b920      	cbnz	r0, 42004f50 <_initio+0x50>
42004f46:	4838      	ldr	r0, [pc, #224]	; (42005028 <_terminateio+0x56>)
42004f48:	4478      	add	r0, pc
42004f4a:	380a      	subs	r0, #10
42004f4c:	f000 f994 	bl	42005278 <__rt_SIGRTRED>
42004f50:	4837      	ldr	r0, [pc, #220]	; (42005030 <_terminateio+0x5e>)
42004f52:	4a2f      	ldr	r2, [pc, #188]	; (42005010 <_terminateio+0x3e>)
42004f54:	a135      	add	r1, pc, #212	; (adr r1, 4200502c <_terminateio+0x5a>)
42004f56:	4478      	add	r0, pc
42004f58:	f000 f8ec 	bl	42005134 <freopen>
42004f5c:	b920      	cbnz	r0, 42004f68 <_initio+0x68>
42004f5e:	4834      	ldr	r0, [pc, #208]	; (42005030 <_terminateio+0x5e>)
42004f60:	4478      	add	r0, pc
42004f62:	380a      	subs	r0, #10
42004f64:	f000 f988 	bl	42005278 <__rt_SIGRTRED>
42004f68:	4832      	ldr	r0, [pc, #200]	; (42005034 <_terminateio+0x62>)
42004f6a:	4a2a      	ldr	r2, [pc, #168]	; (42005014 <_terminateio+0x42>)
42004f6c:	a12f      	add	r1, pc, #188	; (adr r1, 4200502c <_terminateio+0x5a>)
42004f6e:	4478      	add	r0, pc
42004f70:	f000 f8e0 	bl	42005134 <freopen>
42004f74:	b920      	cbnz	r0, 42004f80 <_initio+0x80>
42004f76:	482f      	ldr	r0, [pc, #188]	; (42005034 <_terminateio+0x62>)
42004f78:	4478      	add	r0, pc
42004f7a:	380a      	subs	r0, #10
42004f7c:	f000 f97c 	bl	42005278 <__rt_SIGRTRED>
42004f80:	2340      	movs	r3, #64	; 0x40
42004f82:	4822      	ldr	r0, [pc, #136]	; (4200500c <_terminateio+0x3a>)
42004f84:	00dc      	lsls	r4, r3, #3
42004f86:	2100      	movs	r1, #0
42004f88:	4622      	mov	r2, r4
42004f8a:	f000 f8af 	bl	420050ec <setvbuf>
42004f8e:	b120      	cbz	r0, 42004f9a <_initio+0x9a>
42004f90:	4825      	ldr	r0, [pc, #148]	; (42005028 <_terminateio+0x56>)
42004f92:	4478      	add	r0, pc
42004f94:	3854      	subs	r0, #84	; 0x54
42004f96:	f000 f96f 	bl	42005278 <__rt_SIGRTRED>
42004f9a:	481d      	ldr	r0, [pc, #116]	; (42005010 <_terminateio+0x3e>)
42004f9c:	4622      	mov	r2, r4
42004f9e:	2340      	movs	r3, #64	; 0x40
42004fa0:	2100      	movs	r1, #0
42004fa2:	f000 f8a3 	bl	420050ec <setvbuf>
42004fa6:	b120      	cbz	r0, 42004fb2 <_initio+0xb2>
42004fa8:	4821      	ldr	r0, [pc, #132]	; (42005030 <_terminateio+0x5e>)
42004faa:	4478      	add	r0, pc
42004fac:	3854      	subs	r0, #84	; 0x54
42004fae:	f000 f963 	bl	42005278 <__rt_SIGRTRED>
42004fb2:	4818      	ldr	r0, [pc, #96]	; (42005014 <_terminateio+0x42>)
42004fb4:	4622      	mov	r2, r4
42004fb6:	2310      	movs	r3, #16
42004fb8:	2100      	movs	r1, #0
42004fba:	f000 f897 	bl	420050ec <setvbuf>
42004fbe:	2800      	cmp	r0, #0
42004fc0:	d006      	beq.n	42004fd0 <_initio+0xd0>
42004fc2:	481c      	ldr	r0, [pc, #112]	; (42005034 <_terminateio+0x62>)
42004fc4:	4478      	add	r0, pc
42004fc6:	e8bd 4010 	ldmia.w	sp!, {r4, lr}
42004fca:	3856      	subs	r0, #86	; 0x56
42004fcc:	f000 b954 	b.w	42005278 <__rt_SIGRTRED>
42004fd0:	bd10      	pop	{r4, pc}

42004fd2 <_terminateio>:
42004fd2:	4810      	ldr	r0, [pc, #64]	; (42005014 <_terminateio+0x42>)
42004fd4:	b570      	push	{r4, r5, r6, lr}
42004fd6:	6cc0      	ldr	r0, [r0, #76]	; 0x4c
42004fd8:	f020 0401 	bic.w	r4, r0, #1
42004fdc:	480b      	ldr	r0, [pc, #44]	; (4200500c <_terminateio+0x3a>)
42004fde:	f000 f91f 	bl	42005220 <_fclose_internal>
42004fe2:	480b      	ldr	r0, [pc, #44]	; (42005010 <_terminateio+0x3e>)
42004fe4:	f000 f91c 	bl	42005220 <_fclose_internal>
42004fe8:	480a      	ldr	r0, [pc, #40]	; (42005014 <_terminateio+0x42>)
42004fea:	f000 f919 	bl	42005220 <_fclose_internal>
42004fee:	e009      	b.n	42005004 <_terminateio+0x32>
42004ff0:	6ce0      	ldr	r0, [r4, #76]	; 0x4c
42004ff2:	f020 0501 	bic.w	r5, r0, #1
42004ff6:	4620      	mov	r0, r4
42004ff8:	f000 f912 	bl	42005220 <_fclose_internal>
42004ffc:	4620      	mov	r0, r4
42004ffe:	f000 f84e 	bl	4200509e <free>
42005002:	462c      	mov	r4, r5
42005004:	2c00      	cmp	r4, #0
42005006:	d1f3      	bne.n	42004ff0 <_terminateio+0x1e>
42005008:	bd70      	pop	{r4, r5, r6, pc}
4200500a:	d0400000 	suble	r0, r0, r0
4200500e:	d0904201 	addsle	r4, r0, r1, lsl #4
42005012:	d0e04201 	rscle	r4, r0, r1, lsl #4
42005016:	5a5c4201 	bpl	43715822 <Image$$ARM_LIB_HEAP$$ZI$$Limit+0x695822>
4200501a:	5a604200 	bpl	43815822 <Image$$ARM_LIB_HEAP$$ZI$$Limit+0x795822>
4200501e:	5a644200 	bpl	43915826 <Image$$ARM_LIB_HEAP$$ZI$$Limit+0x895826>
42005022:	00724200 	rsbseq	r4, r2, r0, lsl #4
42005026:	0a870000 	beq	401c502e <ulICCEOIR+0x3e54301e>
4200502a:	00770000 	rsbseq	r0, r7, r0
4200502e:	0a730000 	beq	43cc5036 <Image$$ARM_LIB_HEAP$$ZI$$Limit+0xc45036>
42005032:	0a5f0000 	beq	437c503a <Image$$ARM_LIB_HEAP$$ZI$$Limit+0x74503a>
	...

42005038 <_sys_open>:
42005038:	b50e      	push	{r1, r2, r3, lr}
4200503a:	e9cd 0100 	strd	r0, r1, [sp]
4200503e:	f7ff fcbc 	bl	420049ba <strlen>
42005042:	9002      	str	r0, [sp, #8]
42005044:	4669      	mov	r1, sp
42005046:	2001      	movs	r0, #1
42005048:	dfab      	svc	171	; 0xab
4200504a:	bd0e      	pop	{r1, r2, r3, pc}

4200504c <_sys_close>:
4200504c:	b508      	push	{r3, lr}
4200504e:	4669      	mov	r1, sp
42005050:	9000      	str	r0, [sp, #0]
42005052:	2002      	movs	r0, #2
42005054:	dfab      	svc	171	; 0xab
42005056:	bd08      	pop	{r3, pc}

42005058 <_sys_write>:
42005058:	b51f      	push	{r0, r1, r2, r3, r4, lr}
4200505a:	e88d 0007 	stmia.w	sp, {r0, r1, r2}
4200505e:	4669      	mov	r1, sp
42005060:	2005      	movs	r0, #5
42005062:	dfab      	svc	171	; 0xab
42005064:	b004      	add	sp, #16
42005066:	bd10      	pop	{r4, pc}

42005068 <_sys_read>:
42005068:	b51f      	push	{r0, r1, r2, r3, r4, lr}
4200506a:	e88d 000f 	stmia.w	sp, {r0, r1, r2, r3}
4200506e:	4669      	mov	r1, sp
42005070:	2006      	movs	r0, #6
42005072:	dfab      	svc	171	; 0xab
42005074:	e7f6      	b.n	42005064 <_sys_write+0xc>

42005076 <_sys_istty>:
42005076:	b508      	push	{r3, lr}
42005078:	4669      	mov	r1, sp
4200507a:	9000      	str	r0, [sp, #0]
4200507c:	2009      	movs	r0, #9
4200507e:	dfab      	svc	171	; 0xab
42005080:	bd08      	pop	{r3, pc}

42005082 <_sys_seek>:
42005082:	b51c      	push	{r2, r3, r4, lr}
42005084:	e9cd 0100 	strd	r0, r1, [sp]
42005088:	4669      	mov	r1, sp
4200508a:	200a      	movs	r0, #10
4200508c:	dfab      	svc	171	; 0xab
4200508e:	bd1c      	pop	{r2, r3, r4, pc}

42005090 <_sys_ensure>:
42005090:	4770      	bx	lr

42005092 <_sys_flen>:
42005092:	b508      	push	{r3, lr}
42005094:	4669      	mov	r1, sp
42005096:	9000      	str	r0, [sp, #0]
42005098:	200c      	movs	r0, #12
4200509a:	dfab      	svc	171	; 0xab
4200509c:	bd08      	pop	{r3, pc}

4200509e <free>:
4200509e:	b570      	push	{r4, r5, r6, lr}
420050a0:	4604      	mov	r4, r0
420050a2:	1f05      	subs	r5, r0, #4
420050a4:	f000 f8f0 	bl	42005288 <__rt_heap_descriptor>
420050a8:	6800      	ldr	r0, [r0, #0]
420050aa:	2c00      	cmp	r4, #0
420050ac:	bf18      	it	ne
420050ae:	6844      	ldrne	r4, [r0, #4]
420050b0:	d01b      	beq.n	420050ea <free+0x4c>
420050b2:	2c00      	cmp	r4, #0
420050b4:	bf18      	it	ne
420050b6:	42a5      	cmpne	r5, r4
420050b8:	bf84      	itt	hi
420050ba:	4620      	movhi	r0, r4
420050bc:	6864      	ldrhi	r4, [r4, #4]
420050be:	d8f8      	bhi.n	420050b2 <free+0x14>
420050c0:	6801      	ldr	r1, [r0, #0]
420050c2:	180a      	adds	r2, r1, r0
420050c4:	42aa      	cmp	r2, r5
420050c6:	bf18      	it	ne
420050c8:	6045      	strne	r5, [r0, #4]
420050ca:	d103      	bne.n	420050d4 <free+0x36>
420050cc:	682a      	ldr	r2, [r5, #0]
420050ce:	4605      	mov	r5, r0
420050d0:	4411      	add	r1, r2
420050d2:	6001      	str	r1, [r0, #0]
420050d4:	6828      	ldr	r0, [r5, #0]
420050d6:	1941      	adds	r1, r0, r5
420050d8:	42a1      	cmp	r1, r4
420050da:	bf18      	it	ne
420050dc:	606c      	strne	r4, [r5, #4]
420050de:	d104      	bne.n	420050ea <free+0x4c>
420050e0:	6861      	ldr	r1, [r4, #4]
420050e2:	6069      	str	r1, [r5, #4]
420050e4:	6821      	ldr	r1, [r4, #0]
420050e6:	4408      	add	r0, r1
420050e8:	6028      	str	r0, [r5, #0]
420050ea:	bd70      	pop	{r4, r5, r6, pc}

420050ec <setvbuf>:
420050ec:	b570      	push	{r4, r5, r6, lr}
420050ee:	68c4      	ldr	r4, [r0, #12]
420050f0:	07a5      	lsls	r5, r4, #30
420050f2:	d013      	beq.n	4200511c <setvbuf+0x30>
420050f4:	0265      	lsls	r5, r4, #9
420050f6:	d411      	bmi.n	4200511c <setvbuf+0x30>
420050f8:	f5b2 7f80 	cmp.w	r2, #256	; 0x100
420050fc:	d009      	beq.n	42005112 <setvbuf+0x26>
420050fe:	f5b2 7f00 	cmp.w	r2, #512	; 0x200
42005102:	d006      	beq.n	42005112 <setvbuf+0x26>
42005104:	f5b2 6f80 	cmp.w	r2, #1024	; 0x400
42005108:	d108      	bne.n	4200511c <setvbuf+0x30>
4200510a:	2301      	movs	r3, #1
4200510c:	f100 0124 	add.w	r1, r0, #36	; 0x24
42005110:	e006      	b.n	42005120 <setvbuf+0x34>
42005112:	1e5d      	subs	r5, r3, #1
42005114:	f06f 467f 	mvn.w	r6, #4278190080	; 0xff000000
42005118:	42b5      	cmp	r5, r6
4200511a:	d301      	bcc.n	42005120 <setvbuf+0x34>
4200511c:	2001      	movs	r0, #1
4200511e:	bd70      	pop	{r4, r5, r6, pc}
42005120:	6101      	str	r1, [r0, #16]
42005122:	61c3      	str	r3, [r0, #28]
42005124:	6041      	str	r1, [r0, #4]
42005126:	f424 6170 	bic.w	r1, r4, #3840	; 0xf00
4200512a:	4311      	orrs	r1, r2
4200512c:	60c1      	str	r1, [r0, #12]
4200512e:	2000      	movs	r0, #0
42005130:	bd70      	pop	{r4, r5, r6, pc}
	...

42005134 <freopen>:
42005134:	e92d 41f0 	stmdb	sp!, {r4, r5, r6, r7, r8, lr}
42005138:	4607      	mov	r7, r0
4200513a:	460c      	mov	r4, r1
4200513c:	4616      	mov	r6, r2
4200513e:	4610      	mov	r0, r2
42005140:	f000 f86e 	bl	42005220 <_fclose_internal>
42005144:	7820      	ldrb	r0, [r4, #0]
42005146:	1c61      	adds	r1, r4, #1
42005148:	2861      	cmp	r0, #97	; 0x61
4200514a:	d00a      	beq.n	42005162 <freopen+0x2e>
4200514c:	2872      	cmp	r0, #114	; 0x72
4200514e:	d002      	beq.n	42005156 <freopen+0x22>
42005150:	2877      	cmp	r0, #119	; 0x77
42005152:	d13c      	bne.n	420051ce <freopen+0x9a>
42005154:	e002      	b.n	4200515c <freopen+0x28>
42005156:	2501      	movs	r5, #1
42005158:	2400      	movs	r4, #0
4200515a:	e005      	b.n	42005168 <freopen+0x34>
4200515c:	2502      	movs	r5, #2
4200515e:	2404      	movs	r4, #4
42005160:	e002      	b.n	42005168 <freopen+0x34>
42005162:	2408      	movs	r4, #8
42005164:	f248 0502 	movw	r5, #32770	; 0x8002
42005168:	f811 0b01 	ldrb.w	r0, [r1], #1
4200516c:	282b      	cmp	r0, #43	; 0x2b
4200516e:	d006      	beq.n	4200517e <freopen+0x4a>
42005170:	2862      	cmp	r0, #98	; 0x62
42005172:	d009      	beq.n	42005188 <freopen+0x54>
42005174:	f811 0c01 	ldrb.w	r0, [r1, #-1]
42005178:	2874      	cmp	r0, #116	; 0x74
4200517a:	d00a      	beq.n	42005192 <freopen+0x5e>
4200517c:	e00b      	b.n	42005196 <freopen+0x62>
4200517e:	f045 0503 	orr.w	r5, r5, #3
42005182:	f044 0402 	orr.w	r4, r4, #2
42005186:	e7ef      	b.n	42005168 <freopen+0x34>
42005188:	f045 0504 	orr.w	r5, r5, #4
4200518c:	f044 0401 	orr.w	r4, r4, #1
42005190:	e7ea      	b.n	42005168 <freopen+0x34>
42005192:	f044 0410 	orr.w	r4, r4, #16
42005196:	4638      	mov	r0, r7
42005198:	4621      	mov	r1, r4
4200519a:	f7ff ff4d 	bl	42005038 <_sys_open>
4200519e:	1c41      	adds	r1, r0, #1
420051a0:	d015      	beq.n	420051ce <freopen+0x9a>
420051a2:	2100      	movs	r1, #0
420051a4:	6131      	str	r1, [r6, #16]
420051a6:	6071      	str	r1, [r6, #4]
420051a8:	f44f 7100 	mov.w	r1, #512	; 0x200
420051ac:	60f5      	str	r5, [r6, #12]
420051ae:	61f1      	str	r1, [r6, #28]
420051b0:	6170      	str	r0, [r6, #20]
420051b2:	0720      	lsls	r0, r4, #28
420051b4:	d504      	bpl.n	420051c0 <freopen+0x8c>
420051b6:	4630      	mov	r0, r6
420051b8:	2202      	movs	r2, #2
420051ba:	2100      	movs	r1, #0
420051bc:	f000 f8de 	bl	4200537c <_fseek>
420051c0:	6cf0      	ldr	r0, [r6, #76]	; 0x4c
420051c2:	f040 0001 	orr.w	r0, r0, #1
420051c6:	64f0      	str	r0, [r6, #76]	; 0x4c
420051c8:	4630      	mov	r0, r6
420051ca:	e8bd 81f0 	ldmia.w	sp!, {r4, r5, r6, r7, r8, pc}
420051ce:	2000      	movs	r0, #0
420051d0:	e7fb      	b.n	420051ca <freopen+0x96>

420051d2 <fopen>:
420051d2:	e92d 41f0 	stmdb	sp!, {r4, r5, r6, r7, r8, lr}
420051d6:	4605      	mov	r5, r0
420051d8:	460e      	mov	r6, r1
420051da:	4c10      	ldr	r4, [pc, #64]	; (4200521c <fopen+0x4a>)
420051dc:	6ce0      	ldr	r0, [r4, #76]	; 0x4c
420051de:	07c1      	lsls	r1, r0, #31
420051e0:	d004      	beq.n	420051ec <fopen+0x1a>
420051e2:	0841      	lsrs	r1, r0, #1
420051e4:	d004      	beq.n	420051f0 <fopen+0x1e>
420051e6:	f020 0401 	bic.w	r4, r0, #1
420051ea:	e7f7      	b.n	420051dc <fopen+0xa>
420051ec:	4622      	mov	r2, r4
420051ee:	e00e      	b.n	4200520e <fopen+0x3c>
420051f0:	2050      	movs	r0, #80	; 0x50
420051f2:	f000 f893 	bl	4200531c <malloc>
420051f6:	0007      	movs	r7, r0
420051f8:	d00e      	beq.n	42005218 <fopen+0x46>
420051fa:	6ce0      	ldr	r0, [r4, #76]	; 0x4c
420051fc:	f047 0101 	orr.w	r1, r7, #1
42005200:	4308      	orrs	r0, r1
42005202:	2150      	movs	r1, #80	; 0x50
42005204:	64e0      	str	r0, [r4, #76]	; 0x4c
42005206:	4638      	mov	r0, r7
42005208:	f7ff ebfc 	blx	42004a04 <__aeabi_memclr4>
4200520c:	463a      	mov	r2, r7
4200520e:	4631      	mov	r1, r6
42005210:	4628      	mov	r0, r5
42005212:	e8bd 41f0 	ldmia.w	sp!, {r4, r5, r6, r7, r8, lr}
42005216:	e78d      	b.n	42005134 <freopen>
42005218:	2000      	movs	r0, #0
4200521a:	e7d6      	b.n	420051ca <freopen+0x96>
4200521c:	4201d040 	andmi	sp, r1, #64	; 0x40

42005220 <_fclose_internal>:
42005220:	e92d 47f0 	stmdb	sp!, {r4, r5, r6, r7, r8, r9, sl, lr}
42005224:	4604      	mov	r4, r0
42005226:	f04f 0900 	mov.w	r9, #0
4200522a:	f04f 37ff 	mov.w	r7, #4294967295	; 0xffffffff
4200522e:	68c5      	ldr	r5, [r0, #12]
42005230:	e9d4 8604 	ldrd	r8, r6, [r4, #16]
42005234:	07a8      	lsls	r0, r5, #30
42005236:	d007      	beq.n	42005248 <_fclose_internal+0x28>
42005238:	4620      	mov	r0, r4
4200523a:	f000 f94f 	bl	420054dc <_fflush>
4200523e:	4630      	mov	r0, r6
42005240:	f7ff ff04 	bl	4200504c <_sys_close>
42005244:	2800      	cmp	r0, #0
42005246:	da02      	bge.n	4200524e <_fclose_internal+0x2e>
42005248:	4638      	mov	r0, r7
4200524a:	e8bd 87f0 	ldmia.w	sp!, {r4, r5, r6, r7, r8, r9, sl, pc}
4200524e:	0528      	lsls	r0, r5, #20
42005250:	d502      	bpl.n	42005258 <_fclose_internal+0x38>
42005252:	4640      	mov	r0, r8
42005254:	f7ff ff23 	bl	4200509e <free>
42005258:	2148      	movs	r1, #72	; 0x48
4200525a:	4620      	mov	r0, r4
4200525c:	f7ff ebd2 	blx	42004a04 <__aeabi_memclr4>
42005260:	6ce0      	ldr	r0, [r4, #76]	; 0x4c
42005262:	f020 0001 	bic.w	r0, r0, #1
42005266:	64e0      	str	r0, [r4, #76]	; 0x4c
42005268:	4648      	mov	r0, r9
4200526a:	e7ee      	b.n	4200524a <_fclose_internal+0x2a>

4200526c <exit>:
4200526c:	4604      	mov	r4, r0
4200526e:	f3af 8000 	nop.w
42005272:	4620      	mov	r0, r4
42005274:	f7fa ff9c 	bl	420001b0 <__rt_exit>

42005278 <__rt_SIGRTRED>:
42005278:	b510      	push	{r4, lr}
4200527a:	f000 f979 	bl	42005570 <__rt_SIGRTRED_inner>
4200527e:	e8bd 4010 	ldmia.w	sp!, {r4, lr}
42005282:	f000 b96f 	b.w	42005564 <__sig_exit>

42005286 <__I$use$semihosting>:
42005286:	4770      	bx	lr

42005288 <__rt_heap_descriptor>:
42005288:	4800      	ldr	r0, [pc, #0]	; (4200528c <__rt_heap_descriptor+0x4>)
4200528a:	4770      	bx	lr
4200528c:	4201d138 	andmi	sp, r1, #56, 2

42005290 <__use_no_heap>:
42005290:	4770      	bx	lr

42005292 <__heap$guard>:
42005292:	4770      	bx	lr

42005294 <_terminate_user_alloc>:
42005294:	4770      	bx	lr

42005296 <_init_user_alloc>:
42005296:	4770      	bx	lr

42005298 <__Heap_Full>:
42005298:	b538      	push	{r3, r4, r5, lr}
4200529a:	4604      	mov	r4, r0
4200529c:	460a      	mov	r2, r1
4200529e:	2000      	movs	r0, #0
420052a0:	4669      	mov	r1, sp
420052a2:	f3af 8000 	nop.w
420052a6:	2800      	cmp	r0, #0
420052a8:	d005      	beq.n	420052b6 <__Heap_Full+0x1e>
420052aa:	4602      	mov	r2, r0
420052ac:	4620      	mov	r0, r4
420052ae:	9900      	ldr	r1, [sp, #0]
420052b0:	f000 f985 	bl	420055be <__Heap_ProvideMemory>
420052b4:	2001      	movs	r0, #1
420052b6:	bd38      	pop	{r3, r4, r5, pc}

420052b8 <__Heap_Broken>:
420052b8:	2001      	movs	r0, #1
420052ba:	f000 b9d5 	b.w	42005668 <__rt_SIGRTMEM>

420052be <_init_alloc>:
420052be:	b5f8      	push	{r3, r4, r5, r6, r7, lr}
420052c0:	f3af 8000 	nop.w
420052c4:	4605      	mov	r5, r0
420052c6:	2000      	movs	r0, #0
420052c8:	460c      	mov	r4, r1
420052ca:	2010      	movs	r0, #16
420052cc:	bf00      	nop
420052ce:	4606      	mov	r6, r0
420052d0:	19a8      	adds	r0, r5, r6
420052d2:	42a0      	cmp	r0, r4
420052d4:	d90d      	bls.n	420052f2 <_init_alloc+0x34>
420052d6:	4632      	mov	r2, r6
420052d8:	4669      	mov	r1, sp
420052da:	2000      	movs	r0, #0
420052dc:	f3af 8000 	nop.w
420052e0:	0007      	movs	r7, r0
420052e2:	bf08      	it	eq
420052e4:	f000 f9c0 	bleq	42005668 <__rt_SIGRTMEM>
420052e8:	9800      	ldr	r0, [sp, #0]
420052ea:	42a0      	cmp	r0, r4
420052ec:	bf18      	it	ne
420052ee:	4605      	movne	r5, r0
420052f0:	19c4      	adds	r4, r0, r7
420052f2:	f7ff ffc9 	bl	42005288 <__rt_heap_descriptor>
420052f6:	6005      	str	r5, [r0, #0]
420052f8:	4607      	mov	r7, r0
420052fa:	1df0      	adds	r0, r6, #7
420052fc:	f020 0007 	bic.w	r0, r0, #7
42005300:	1946      	adds	r6, r0, r5
42005302:	4628      	mov	r0, r5
42005304:	f000 f954 	bl	420055b0 <__Heap_Initialize>
42005308:	42b4      	cmp	r4, r6
4200530a:	d006      	beq.n	4200531a <_init_alloc+0x5c>
4200530c:	4631      	mov	r1, r6
4200530e:	6838      	ldr	r0, [r7, #0]
42005310:	1ba2      	subs	r2, r4, r6
42005312:	e8bd 40f8 	ldmia.w	sp!, {r3, r4, r5, r6, r7, lr}
42005316:	f000 b952 	b.w	420055be <__Heap_ProvideMemory>
4200531a:	bdf8      	pop	{r3, r4, r5, r6, r7, pc}

4200531c <malloc>:
4200531c:	b570      	push	{r4, r5, r6, lr}
4200531e:	4606      	mov	r6, r0
42005320:	f7ff ffb2 	bl	42005288 <__rt_heap_descriptor>
42005324:	6805      	ldr	r5, [r0, #0]
42005326:	f106 000b 	add.w	r0, r6, #11
4200532a:	f020 0407 	bic.w	r4, r0, #7
4200532e:	42b4      	cmp	r4, r6
42005330:	bf98      	it	ls
42005332:	2000      	movls	r0, #0
42005334:	d915      	bls.n	42005362 <malloc+0x46>
42005336:	462b      	mov	r3, r5
42005338:	686a      	ldr	r2, [r5, #4]
4200533a:	b1ba      	cbz	r2, 4200536c <malloc+0x50>
4200533c:	6810      	ldr	r0, [r2, #0]
4200533e:	42a0      	cmp	r0, r4
42005340:	d310      	bcc.n	42005364 <malloc+0x48>
42005342:	f104 0108 	add.w	r1, r4, #8
42005346:	4288      	cmp	r0, r1
42005348:	bf3c      	itt	cc
4200534a:	6850      	ldrcc	r0, [r2, #4]
4200534c:	6058      	strcc	r0, [r3, #4]
4200534e:	d307      	bcc.n	42005360 <malloc+0x44>
42005350:	6851      	ldr	r1, [r2, #4]
42005352:	1910      	adds	r0, r2, r4
42005354:	6041      	str	r1, [r0, #4]
42005356:	6811      	ldr	r1, [r2, #0]
42005358:	1b09      	subs	r1, r1, r4
4200535a:	6001      	str	r1, [r0, #0]
4200535c:	6058      	str	r0, [r3, #4]
4200535e:	6014      	str	r4, [r2, #0]
42005360:	1d10      	adds	r0, r2, #4
42005362:	bd70      	pop	{r4, r5, r6, pc}
42005364:	4613      	mov	r3, r2
42005366:	6852      	ldr	r2, [r2, #4]
42005368:	2a00      	cmp	r2, #0
4200536a:	d1e7      	bne.n	4200533c <malloc+0x20>
4200536c:	4621      	mov	r1, r4
4200536e:	4628      	mov	r0, r5
42005370:	f7ff ff92 	bl	42005298 <__Heap_Full>
42005374:	2800      	cmp	r0, #0
42005376:	d1de      	bne.n	42005336 <malloc+0x1a>
42005378:	bd70      	pop	{r4, r5, r6, pc}
	...

4200537c <_fseek>:
4200537c:	e92d 41f0 	stmdb	sp!, {r4, r5, r6, r7, r8, lr}
42005380:	4604      	mov	r4, r0
42005382:	460d      	mov	r5, r1
42005384:	4616      	mov	r6, r2
42005386:	6947      	ldr	r7, [r0, #20]
42005388:	68c0      	ldr	r0, [r0, #12]
4200538a:	0780      	lsls	r0, r0, #30
4200538c:	d02e      	beq.n	420053ec <_fseek+0x70>
4200538e:	4638      	mov	r0, r7
42005390:	f7ff fe71 	bl	42005076 <_sys_istty>
42005394:	bb50      	cbnz	r0, 420053ec <_fseek+0x70>
42005396:	b33e      	cbz	r6, 420053e8 <_fseek+0x6c>
42005398:	2e01      	cmp	r6, #1
4200539a:	d002      	beq.n	420053a2 <_fseek+0x26>
4200539c:	2e02      	cmp	r6, #2
4200539e:	d125      	bne.n	420053ec <_fseek+0x70>
420053a0:	e004      	b.n	420053ac <_fseek+0x30>
420053a2:	4620      	mov	r0, r4
420053a4:	f000 f924 	bl	420055f0 <_ftell_internal>
420053a8:	4405      	add	r5, r0
420053aa:	e01d      	b.n	420053e8 <_fseek+0x6c>
420053ac:	4638      	mov	r0, r7
420053ae:	f7ff fe70 	bl	42005092 <_sys_flen>
420053b2:	68e1      	ldr	r1, [r4, #12]
420053b4:	2800      	cmp	r0, #0
420053b6:	f041 0110 	orr.w	r1, r1, #16
420053ba:	60e1      	str	r1, [r4, #12]
420053bc:	da05      	bge.n	420053ca <_fseek+0x4e>
420053be:	4620      	mov	r0, r4
420053c0:	f000 f858 	bl	42005474 <_seterr>
420053c4:	2001      	movs	r0, #1
420053c6:	e8bd 81f0 	ldmia.w	sp!, {r4, r5, r6, r7, r8, pc}
420053ca:	03c9      	lsls	r1, r1, #15
420053cc:	d50b      	bpl.n	420053e6 <_fseek+0x6a>
420053ce:	6ae2      	ldr	r2, [r4, #44]	; 0x2c
420053d0:	6861      	ldr	r1, [r4, #4]
420053d2:	428a      	cmp	r2, r1
420053d4:	d900      	bls.n	420053d8 <_fseek+0x5c>
420053d6:	4611      	mov	r1, r2
420053d8:	69a2      	ldr	r2, [r4, #24]
420053da:	4411      	add	r1, r2
420053dc:	6922      	ldr	r2, [r4, #16]
420053de:	1a89      	subs	r1, r1, r2
420053e0:	4281      	cmp	r1, r0
420053e2:	dd00      	ble.n	420053e6 <_fseek+0x6a>
420053e4:	4608      	mov	r0, r1
420053e6:	4405      	add	r5, r0
420053e8:	2d00      	cmp	r5, #0
420053ea:	da01      	bge.n	420053f0 <_fseek+0x74>
420053ec:	2002      	movs	r0, #2
420053ee:	e7ea      	b.n	420053c6 <_fseek+0x4a>
420053f0:	6ae1      	ldr	r1, [r4, #44]	; 0x2c
420053f2:	6860      	ldr	r0, [r4, #4]
420053f4:	68e2      	ldr	r2, [r4, #12]
420053f6:	4281      	cmp	r1, r0
420053f8:	d206      	bcs.n	42005408 <_fseek+0x8c>
420053fa:	0391      	lsls	r1, r2, #14
420053fc:	62e0      	str	r0, [r4, #44]	; 0x2c
420053fe:	d503      	bpl.n	42005408 <_fseek+0x8c>
42005400:	f422 3100 	bic.w	r1, r2, #131072	; 0x20000
42005404:	f041 0210 	orr.w	r2, r1, #16
42005408:	f04f 0c00 	mov.w	ip, #0
4200540c:	69a6      	ldr	r6, [r4, #24]
4200540e:	42ae      	cmp	r6, r5
42005410:	dc11      	bgt.n	42005436 <_fseek+0xba>
42005412:	6ae1      	ldr	r1, [r4, #44]	; 0x2c
42005414:	4281      	cmp	r1, r0
42005416:	d901      	bls.n	4200541c <_fseek+0xa0>
42005418:	460b      	mov	r3, r1
4200541a:	e000      	b.n	4200541e <_fseek+0xa2>
4200541c:	4603      	mov	r3, r0
4200541e:	199f      	adds	r7, r3, r6
42005420:	6923      	ldr	r3, [r4, #16]
42005422:	1aff      	subs	r7, r7, r3
42005424:	42af      	cmp	r7, r5
42005426:	dd06      	ble.n	42005436 <_fseek+0xba>
42005428:	4281      	cmp	r1, r0
4200542a:	d901      	bls.n	42005430 <_fseek+0xb4>
4200542c:	460f      	mov	r7, r1
4200542e:	e000      	b.n	42005432 <_fseek+0xb6>
42005430:	4607      	mov	r7, r0
42005432:	429f      	cmp	r7, r3
42005434:	d107      	bne.n	42005446 <_fseek+0xca>
42005436:	f8c4 c008 	str.w	ip, [r4, #8]
4200543a:	f8c4 c000 	str.w	ip, [r4]
4200543e:	f042 0020 	orr.w	r0, r2, #32
42005442:	62a5      	str	r5, [r4, #40]	; 0x28
42005444:	e00d      	b.n	42005462 <_fseek+0xe6>
42005446:	1bad      	subs	r5, r5, r6
42005448:	69e6      	ldr	r6, [r4, #28]
4200544a:	1bae      	subs	r6, r5, r6
4200544c:	4281      	cmp	r1, r0
4200544e:	60a6      	str	r6, [r4, #8]
42005450:	d900      	bls.n	42005454 <_fseek+0xd8>
42005452:	4608      	mov	r0, r1
42005454:	1ac0      	subs	r0, r0, r3
42005456:	1a28      	subs	r0, r5, r0
42005458:	6020      	str	r0, [r4, #0]
4200545a:	1958      	adds	r0, r3, r5
4200545c:	6060      	str	r0, [r4, #4]
4200545e:	f022 0020 	bic.w	r0, r2, #32
42005462:	4903      	ldr	r1, [pc, #12]	; (42005470 <_fseek+0xf4>)
42005464:	4008      	ands	r0, r1
42005466:	60e0      	str	r0, [r4, #12]
42005468:	2000      	movs	r0, #0
4200546a:	f884 c044 	strb.w	ip, [r4, #68]	; 0x44
4200546e:	e7aa      	b.n	420053c6 <_fseek+0x4a>
42005470:	ffd7cfbf 			; <UNDEFINED> instruction: 0xffd7cfbf

42005474 <_seterr>:
42005474:	68c1      	ldr	r1, [r0, #12]
42005476:	f421 1100 	bic.w	r1, r1, #2097152	; 0x200000
4200547a:	f041 0180 	orr.w	r1, r1, #128	; 0x80
4200547e:	60c1      	str	r1, [r0, #12]
42005480:	2100      	movs	r1, #0
42005482:	6081      	str	r1, [r0, #8]
42005484:	6001      	str	r1, [r0, #0]
42005486:	4770      	bx	lr

42005488 <_writebuf>:
42005488:	e92d 47f0 	stmdb	sp!, {r4, r5, r6, r7, r8, r9, sl, lr}
4200548c:	4681      	mov	r9, r0
4200548e:	460e      	mov	r6, r1
42005490:	4614      	mov	r4, r2
42005492:	f04f 38ff 	mov.w	r8, #4294967295	; 0xffffffff
42005496:	4832      	ldr	r0, [pc, #200]	; (42005560 <_deferredlazyseek+0x3e>)
42005498:	68d5      	ldr	r5, [r2, #12]
4200549a:	6957      	ldr	r7, [r2, #20]
4200549c:	4205      	tst	r5, r0
4200549e:	d009      	beq.n	420054b4 <_writebuf+0x2c>
420054a0:	4638      	mov	r0, r7
420054a2:	69a1      	ldr	r1, [r4, #24]
420054a4:	f7ff fded 	bl	42005082 <_sys_seek>
420054a8:	2800      	cmp	r0, #0
420054aa:	db11      	blt.n	420054d0 <_writebuf+0x48>
420054ac:	482c      	ldr	r0, [pc, #176]	; (42005560 <_deferredlazyseek+0x3e>)
420054ae:	43c0      	mvns	r0, r0
420054b0:	4005      	ands	r5, r0
420054b2:	60e5      	str	r5, [r4, #12]
420054b4:	462b      	mov	r3, r5
420054b6:	4632      	mov	r2, r6
420054b8:	4649      	mov	r1, r9
420054ba:	4638      	mov	r0, r7
420054bc:	f7ff fdcc 	bl	42005058 <_sys_write>
420054c0:	69a1      	ldr	r1, [r4, #24]
420054c2:	f020 4200 	bic.w	r2, r0, #2147483648	; 0x80000000
420054c6:	1ab2      	subs	r2, r6, r2
420054c8:	4411      	add	r1, r2
420054ca:	2800      	cmp	r0, #0
420054cc:	61a1      	str	r1, [r4, #24]
420054ce:	d003      	beq.n	420054d8 <_writebuf+0x50>
420054d0:	4620      	mov	r0, r4
420054d2:	f7ff ffcf 	bl	42005474 <_seterr>
420054d6:	4640      	mov	r0, r8
420054d8:	e8bd 87f0 	ldmia.w	sp!, {r4, r5, r6, r7, r8, r9, sl, pc}

420054dc <_fflush>:
420054dc:	b570      	push	{r4, r5, r6, lr}
420054de:	4604      	mov	r4, r0
420054e0:	6905      	ldr	r5, [r0, #16]
420054e2:	6ac0      	ldr	r0, [r0, #44]	; 0x2c
420054e4:	6861      	ldr	r1, [r4, #4]
420054e6:	4288      	cmp	r0, r1
420054e8:	d800      	bhi.n	420054ec <_fflush+0x10>
420054ea:	4608      	mov	r0, r1
420054ec:	68e1      	ldr	r1, [r4, #12]
420054ee:	f421 1120 	bic.w	r1, r1, #2621440	; 0x280000
420054f2:	60e1      	str	r1, [r4, #12]
420054f4:	03c9      	lsls	r1, r1, #15
420054f6:	d512      	bpl.n	4200551e <_fflush+0x42>
420054f8:	42a8      	cmp	r0, r5
420054fa:	d008      	beq.n	4200550e <_fflush+0x32>
420054fc:	4622      	mov	r2, r4
420054fe:	1b41      	subs	r1, r0, r5
42005500:	4628      	mov	r0, r5
42005502:	f7ff ffc1 	bl	42005488 <_writebuf>
42005506:	b110      	cbz	r0, 4200550e <_fflush+0x32>
42005508:	f04f 30ff 	mov.w	r0, #4294967295	; 0xffffffff
4200550c:	bd70      	pop	{r4, r5, r6, pc}
4200550e:	2000      	movs	r0, #0
42005510:	62e5      	str	r5, [r4, #44]	; 0x2c
42005512:	e9c4 5001 	strd	r5, r0, [r4, #4]
42005516:	68e0      	ldr	r0, [r4, #12]
42005518:	f420 3080 	bic.w	r0, r0, #65536	; 0x10000
4200551c:	60e0      	str	r0, [r4, #12]
4200551e:	2000      	movs	r0, #0
42005520:	bd70      	pop	{r4, r5, r6, pc}

42005522 <_deferredlazyseek>:
42005522:	b510      	push	{r4, lr}
42005524:	4604      	mov	r4, r0
42005526:	68c0      	ldr	r0, [r0, #12]
42005528:	f020 0020 	bic.w	r0, r0, #32
4200552c:	60e0      	str	r0, [r4, #12]
4200552e:	6aa1      	ldr	r1, [r4, #40]	; 0x28
42005530:	69a0      	ldr	r0, [r4, #24]
42005532:	4288      	cmp	r0, r1
42005534:	d00d      	beq.n	42005552 <_deferredlazyseek+0x30>
42005536:	4620      	mov	r0, r4
42005538:	f7ff ffd0 	bl	420054dc <_fflush>
4200553c:	68e0      	ldr	r0, [r4, #12]
4200553e:	f420 5040 	bic.w	r0, r0, #12288	; 0x3000
42005542:	f040 0010 	orr.w	r0, r0, #16
42005546:	60e0      	str	r0, [r4, #12]
42005548:	6aa0      	ldr	r0, [r4, #40]	; 0x28
4200554a:	61a0      	str	r0, [r4, #24]
4200554c:	6920      	ldr	r0, [r4, #16]
4200554e:	62e0      	str	r0, [r4, #44]	; 0x2c
42005550:	6060      	str	r0, [r4, #4]
42005552:	f244 0140 	movw	r1, #16448	; 0x4040
42005556:	68e0      	ldr	r0, [r4, #12]
42005558:	4388      	bics	r0, r1
4200555a:	60e0      	str	r0, [r4, #12]
4200555c:	bd10      	pop	{r4, pc}
4200555e:	00100000 	andseq	r0, r0, r0
42005562:	28000002 	stmdacs	r0, {r1}

42005564 <__sig_exit>:
42005564:	2800      	cmp	r0, #0
42005566:	d001      	beq.n	4200556c <__sig_exit+0x8>
42005568:	f000 b81c 	b.w	420055a4 <_sys_exit>
4200556c:	4770      	bx	lr
	...

42005570 <__rt_SIGRTRED_inner>:
42005570:	b510      	push	{r4, lr}
42005572:	4601      	mov	r1, r0
42005574:	a002      	add	r0, pc, #8	; (adr r0, 42005580 <__rt_SIGRTRED_inner+0x10>)
42005576:	f000 f85e 	bl	42005636 <__default_signal_display>
4200557a:	2001      	movs	r0, #1
4200557c:	bd10      	pop	{r4, pc}
4200557e:	49530000 	ldmdbmi	r3, {}^	; <UNPREDICTABLE>
42005582:	52545247 	subspl	r5, r4, #1879048196	; 0x70000004
42005586:	203a4445 	eorscs	r4, sl, r5, asr #8
4200558a:	69646552 	stmdbvs	r4!, {r1, r4, r6, r8, sl, sp, lr}^
4200558e:	74636572 	strbtvc	r6, [r3], #-1394	; 0x572
42005592:	6163203a 	cmnvs	r3, sl, lsr r0
42005596:	2074276e 	rsbscs	r2, r4, lr, ror #14
4200559a:	6e65706f 	cdpvs	0, 6, cr7, cr5, cr15, {3}
4200559e:	0000203a 	andeq	r2, r0, sl, lsr r0
	...

420055a4 <_sys_exit>:
420055a4:	4901      	ldr	r1, [pc, #4]	; (420055ac <_sys_exit+0x8>)
420055a6:	2018      	movs	r0, #24
420055a8:	dfab      	svc	171	; 0xab
420055aa:	e7fe      	b.n	420055aa <_sys_exit+0x6>
420055ac:	00020026 	andeq	r0, r2, r6, lsr #32

420055b0 <__Heap_Initialize>:
420055b0:	2100      	movs	r1, #0
420055b2:	6001      	str	r1, [r0, #0]
420055b4:	e9c0 1001 	strd	r1, r0, [r0, #4]
420055b8:	4770      	bx	lr

420055ba <__Heap_DescSize>:
420055ba:	2010      	movs	r0, #16
420055bc:	4770      	bx	lr

420055be <__Heap_ProvideMemory>:
420055be:	6843      	ldr	r3, [r0, #4]
420055c0:	468c      	mov	ip, r1
420055c2:	2b00      	cmp	r3, #0
420055c4:	bf18      	it	ne
420055c6:	4299      	cmpne	r1, r3
420055c8:	bf84      	itt	hi
420055ca:	4618      	movhi	r0, r3
420055cc:	685b      	ldrhi	r3, [r3, #4]
420055ce:	d8f8      	bhi.n	420055c2 <__Heap_ProvideMemory+0x4>
420055d0:	6803      	ldr	r3, [r0, #0]
420055d2:	4418      	add	r0, r3
420055d4:	4288      	cmp	r0, r1
420055d6:	d007      	beq.n	420055e8 <__Heap_ProvideMemory+0x2a>
420055d8:	f10c 0003 	add.w	r0, ip, #3
420055dc:	f020 0007 	bic.w	r0, r0, #7
420055e0:	1d00      	adds	r0, r0, #4
420055e2:	1a41      	subs	r1, r0, r1
420055e4:	1a52      	subs	r2, r2, r1
420055e6:	4601      	mov	r1, r0
420055e8:	1d08      	adds	r0, r1, #4
420055ea:	600a      	str	r2, [r1, #0]
420055ec:	f7ff bd57 	b.w	4200509e <free>

420055f0 <_ftell_internal>:
420055f0:	b510      	push	{r4, lr}
420055f2:	4601      	mov	r1, r0
420055f4:	68c2      	ldr	r2, [r0, #12]
420055f6:	0790      	lsls	r0, r2, #30
420055f8:	d003      	beq.n	42005602 <_ftell_internal+0x12>
420055fa:	0690      	lsls	r0, r2, #26
420055fc:	d507      	bpl.n	4200560e <_ftell_internal+0x1e>
420055fe:	6a88      	ldr	r0, [r1, #40]	; 0x28
42005600:	e00b      	b.n	4200561a <_ftell_internal+0x2a>
42005602:	f000 f83f 	bl	42005684 <__aeabi_errno_addr>
42005606:	2101      	movs	r1, #1
42005608:	6001      	str	r1, [r0, #0]
4200560a:	1e88      	subs	r0, r1, #2
4200560c:	bd10      	pop	{r4, pc}
4200560e:	698b      	ldr	r3, [r1, #24]
42005610:	6848      	ldr	r0, [r1, #4]
42005612:	4418      	add	r0, r3
42005614:	690b      	ldr	r3, [r1, #16]
42005616:	eba0 0003 	sub.w	r0, r0, r3
4200561a:	f891 3044 	ldrb.w	r3, [r1, #68]	; 0x44
4200561e:	b123      	cbz	r3, 4200562a <_ftell_internal+0x3a>
42005620:	f891 1045 	ldrb.w	r1, [r1, #69]	; 0x45
42005624:	eba0 0001 	sub.w	r0, r0, r1
42005628:	bd10      	pop	{r4, pc}
4200562a:	0311      	lsls	r1, r2, #12
4200562c:	d5fc      	bpl.n	42005628 <_ftell_internal+0x38>
4200562e:	2800      	cmp	r0, #0
42005630:	ddfa      	ble.n	42005628 <_ftell_internal+0x38>
42005632:	1e40      	subs	r0, r0, #1
42005634:	bd10      	pop	{r4, pc}

42005636 <__default_signal_display>:
42005636:	b570      	push	{r4, r5, r6, lr}
42005638:	4605      	mov	r5, r0
4200563a:	460c      	mov	r4, r1
4200563c:	200a      	movs	r0, #10
4200563e:	e000      	b.n	42005642 <__default_signal_display+0xc>
42005640:	1c6d      	adds	r5, r5, #1
42005642:	f000 f818 	bl	42005676 <_ttywrch>
42005646:	b135      	cbz	r5, 42005656 <__default_signal_display+0x20>
42005648:	7828      	ldrb	r0, [r5, #0]
4200564a:	2800      	cmp	r0, #0
4200564c:	d1f8      	bne.n	42005640 <__default_signal_display+0xa>
4200564e:	e002      	b.n	42005656 <__default_signal_display+0x20>
42005650:	1c64      	adds	r4, r4, #1
42005652:	f000 f810 	bl	42005676 <_ttywrch>
42005656:	b114      	cbz	r4, 4200565e <__default_signal_display+0x28>
42005658:	7820      	ldrb	r0, [r4, #0]
4200565a:	2800      	cmp	r0, #0
4200565c:	d1f8      	bne.n	42005650 <__default_signal_display+0x1a>
4200565e:	e8bd 4070 	ldmia.w	sp!, {r4, r5, r6, lr}
42005662:	200a      	movs	r0, #10
42005664:	f000 b807 	b.w	42005676 <_ttywrch>

42005668 <__rt_SIGRTMEM>:
42005668:	b510      	push	{r4, lr}
4200566a:	f000 f80f 	bl	4200568c <__rt_SIGRTMEM_inner>
4200566e:	e8bd 4010 	ldmia.w	sp!, {r4, lr}
42005672:	f7ff bf77 	b.w	42005564 <__sig_exit>

42005676 <_ttywrch>:
42005676:	b508      	push	{r3, lr}
42005678:	4669      	mov	r1, sp
4200567a:	f88d 0000 	strb.w	r0, [sp]
4200567e:	2003      	movs	r0, #3
42005680:	dfab      	svc	171	; 0xab
42005682:	bd08      	pop	{r3, pc}

42005684 <__aeabi_errno_addr>:
42005684:	4800      	ldr	r0, [pc, #0]	; (42005688 <__aeabi_errno_addr+0x4>)
42005686:	4770      	bx	lr
42005688:	4201d130 	andmi	sp, r1, #48, 2

4200568c <__rt_SIGRTMEM_inner>:
4200568c:	b510      	push	{r4, lr}
4200568e:	2801      	cmp	r0, #1
42005690:	d005      	beq.n	4200569e <__rt_SIGRTMEM_inner+0x12>
42005692:	2100      	movs	r1, #0
42005694:	a003      	add	r0, pc, #12	; (adr r0, 420056a4 <__rt_SIGRTMEM_inner+0x18>)
42005696:	f7ff ffce 	bl	42005636 <__default_signal_display>
4200569a:	2001      	movs	r0, #1
4200569c:	bd10      	pop	{r4, pc}
4200569e:	a109      	add	r1, pc, #36	; (adr r1, 420056c4 <__rt_SIGRTMEM_inner+0x38>)
420056a0:	e7f8      	b.n	42005694 <__rt_SIGRTMEM_inner+0x8>
420056a2:	49530000 	ldmdbmi	r3, {}^	; <UNPREDICTABLE>
420056a6:	4d545247 	lfmmi	f5, 2, [r4, #-284]	; 0xfffffee4
420056aa:	203a4d45 	eorscs	r4, sl, r5, asr #26
420056ae:	2074754f 	rsbscs	r7, r4, pc, asr #10
420056b2:	6820666f 	stmdavs	r0!, {r0, r1, r2, r3, r5, r6, r9, sl, sp, lr}
420056b6:	20706165 	rsbscs	r6, r0, r5, ror #2
420056ba:	6f6d656d 	svcvs	0x006d656d
420056be:	00007972 	andeq	r7, r0, r2, ror r9
420056c2:	203a0000 	eorscs	r0, sl, r0
420056c6:	70616548 	rsbvc	r6, r1, r8, asr #10
420056ca:	6d656d20 	stclvs	13, cr6, [r5, #-128]!	; 0xffffff80
420056ce:	2079726f 	rsbscs	r7, r9, pc, ror #4
420056d2:	72726f63 	rsbsvc	r6, r2, #396	; 0x18c
420056d6:	65747075 	ldrbvs	r7, [r4, #-117]!	; 0x75
420056da:	20000064 	andcs	r0, r0, r4, rrx

420056dc <__aeabi_uidiv>:
420056dc:	e3b02000 	movs	r2, #0
420056e0:	e0713120 	rsbs	r3, r1, r0, lsr #2
420056e4:	3afffd35 	bcc	42004bc0 <__arm_div2>
420056e8:	e07132a0 	rsbs	r3, r1, r0, lsr #5
420056ec:	3afffd2a 	bcc	42004b9c <__arm_div5>
420056f0:	e0713420 	rsbs	r3, r1, r0, lsr #8
420056f4:	3afffd1f 	bcc	42004b78 <__arm_div8>
420056f8:	e3a0c000 	mov	ip, #0
420056fc:	eafffd3e 	b	42004bfc <__arm_div_large>

42005700 <FreeRTOS_SWI_Handler>:
42005700:	f96d051f 	srsdb	sp!, #31
42005704:	f102001f 	cps	#31
42005708:	e92d5fff 	push	{r0, r1, r2, r3, r4, r5, r6, r7, r8, r9, sl, fp, ip, lr}
4200570c:	e59f2230 	ldr	r2, [pc, #560]	; 42005944 <FreeRTOS_IRQ_Handler+0x14c>
42005710:	e5921000 	ldr	r1, [r2]
42005714:	e52d1004 	push	{r1}		; (str r1, [sp, #-4]!)
42005718:	e59f2228 	ldr	r2, [pc, #552]	; 42005948 <FreeRTOS_IRQ_Handler+0x150>
4200571c:	e5923000 	ldr	r3, [r2]
42005720:	e3530000 	cmp	r3, #0
42005724:	1ef11a10 	vmrsne	r1, fpscr
42005728:	1d2d0b20 	vpushne	{d0-d15}
4200572c:	1d6d0b20 	vpushne	{d16-d31}
42005730:	152d1004 	pushne	{r1}		; (strne r1, [sp, #-4]!)
42005734:	e52d3004 	push	{r3}		; (str r3, [sp, #-4]!)
42005738:	e59f020c 	ldr	r0, [pc, #524]	; 4200594c <FreeRTOS_IRQ_Handler+0x154>
4200573c:	e5901000 	ldr	r1, [r0]
42005740:	e581d000 	str	sp, [r1]
42005744:	e59f0204 	ldr	r0, [pc, #516]	; 42005950 <FreeRTOS_IRQ_Handler+0x158>
42005748:	e12fff30 	blx	r0
4200574c:	e59f01f8 	ldr	r0, [pc, #504]	; 4200594c <FreeRTOS_IRQ_Handler+0x154>
42005750:	e5901000 	ldr	r1, [r0]
42005754:	e591d000 	ldr	sp, [r1]
42005758:	e59f01e8 	ldr	r0, [pc, #488]	; 42005948 <FreeRTOS_IRQ_Handler+0x150>
4200575c:	e49d1004 	pop	{r1}		; (ldr r1, [sp], #4)
42005760:	e5801000 	str	r1, [r0]
42005764:	e3510000 	cmp	r1, #0
42005768:	149d0004 	popne	{r0}		; (ldrne r0, [sp], #4)
4200576c:	1cfd0b20 	vpopne	{d16-d31}
42005770:	1cbd0b20 	vpopne	{d0-d15}
42005774:	1ee10a10 	vmsrne	fpscr, r0
42005778:	e59f01c4 	ldr	r0, [pc, #452]	; 42005944 <FreeRTOS_IRQ_Handler+0x14c>
4200577c:	e49d1004 	pop	{r1}		; (ldr r1, [sp], #4)
42005780:	e5801000 	str	r1, [r0]
42005784:	e59f21c8 	ldr	r2, [pc, #456]	; 42005954 <FreeRTOS_IRQ_Handler+0x15c>
42005788:	e3510000 	cmp	r1, #0
4200578c:	03a040ff 	moveq	r4, #255	; 0xff
42005790:	159f41c0 	ldrne	r4, [pc, #448]	; 42005958 <FreeRTOS_IRQ_Handler+0x160>
42005794:	e5824000 	str	r4, [r2]
42005798:	e8bd5fff 	pop	{r0, r1, r2, r3, r4, r5, r6, r7, r8, r9, sl, fp, ip, lr}
4200579c:	f8bd0a00 	rfeia	sp!

420057a0 <vPortRestoreTaskContext>:
420057a0:	f102001f 	cps	#31
420057a4:	e59f01a0 	ldr	r0, [pc, #416]	; 4200594c <FreeRTOS_IRQ_Handler+0x154>
420057a8:	e5901000 	ldr	r1, [r0]
420057ac:	e591d000 	ldr	sp, [r1]
420057b0:	e59f0190 	ldr	r0, [pc, #400]	; 42005948 <FreeRTOS_IRQ_Handler+0x150>
420057b4:	e49d1004 	pop	{r1}		; (ldr r1, [sp], #4)
420057b8:	e5801000 	str	r1, [r0]
420057bc:	e3510000 	cmp	r1, #0
420057c0:	149d0004 	popne	{r0}		; (ldrne r0, [sp], #4)
420057c4:	1cfd0b20 	vpopne	{d16-d31}
420057c8:	1cbd0b20 	vpopne	{d0-d15}
420057cc:	1ee10a10 	vmsrne	fpscr, r0
420057d0:	e59f016c 	ldr	r0, [pc, #364]	; 42005944 <FreeRTOS_IRQ_Handler+0x14c>
420057d4:	e49d1004 	pop	{r1}		; (ldr r1, [sp], #4)
420057d8:	e5801000 	str	r1, [r0]
420057dc:	e59f2170 	ldr	r2, [pc, #368]	; 42005954 <FreeRTOS_IRQ_Handler+0x15c>
420057e0:	e3510000 	cmp	r1, #0
420057e4:	03a040ff 	moveq	r4, #255	; 0xff
420057e8:	159f4168 	ldrne	r4, [pc, #360]	; 42005958 <FreeRTOS_IRQ_Handler+0x160>
420057ec:	e5824000 	str	r4, [r2]
420057f0:	e8bd5fff 	pop	{r0, r1, r2, r3, r4, r5, r6, r7, r8, r9, sl, fp, ip, lr}
420057f4:	f8bd0a00 	rfeia	sp!

420057f8 <FreeRTOS_IRQ_Handler>:
420057f8:	e24ee004 	sub	lr, lr, #4
420057fc:	e52de004 	push	{lr}		; (str lr, [sp, #-4]!)
42005800:	e14fe000 	mrs	lr, SPSR
42005804:	e52de004 	push	{lr}		; (str lr, [sp, #-4]!)
42005808:	f1020013 	cps	#19
4200580c:	e92d101f 	push	{r0, r1, r2, r3, r4, ip}
42005810:	e59f3144 	ldr	r3, [pc, #324]	; 4200595c <FreeRTOS_IRQ_Handler+0x164>
42005814:	e5931000 	ldr	r1, [r3]
42005818:	e2814001 	add	r4, r1, #1
4200581c:	e5834000 	str	r4, [r3]
42005820:	e59f2138 	ldr	r2, [pc, #312]	; 42005960 <FreeRTOS_IRQ_Handler+0x168>
42005824:	e5920000 	ldr	r0, [r2]
42005828:	e1a0200d 	mov	r2, sp
4200582c:	e2022004 	and	r2, r2, #4
42005830:	e04dd002 	sub	sp, sp, r2
42005834:	e92d401f 	push	{r0, r1, r2, r3, r4, lr}
42005838:	e59f1124 	ldr	r1, [pc, #292]	; 42005964 <FreeRTOS_IRQ_Handler+0x16c>
4200583c:	e12fff31 	blx	r1
42005840:	e8bd401f 	pop	{r0, r1, r2, r3, r4, lr}
42005844:	e08dd002 	add	sp, sp, r2
42005848:	f10c0080 	cpsid	i
4200584c:	e59f4114 	ldr	r4, [pc, #276]	; 42005968 <FreeRTOS_IRQ_Handler+0x170>
42005850:	e5840000 	str	r0, [r4]
42005854:	e5831000 	str	r1, [r3]
42005858:	e3510000 	cmp	r1, #0
4200585c:	1a000003 	bne	42005870 <FreeRTOS_IRQ_Handler+0x78>
42005860:	e59f1104 	ldr	r1, [pc, #260]	; 4200596c <FreeRTOS_IRQ_Handler+0x174>
42005864:	e5910000 	ldr	r0, [r1]
42005868:	e3500000 	cmp	r0, #0
4200586c:	1a000005 	bne	42005888 <FreeRTOS_IRQ_Handler+0x90>
42005870:	e8bd101f 	pop	{r0, r1, r2, r3, r4, ip}
42005874:	f1020012 	cps	#18
42005878:	e49de004 	pop	{lr}		; (ldr lr, [sp], #4)
4200587c:	e16ff00e 	msr	SPSR_fsxc, lr
42005880:	e49de004 	pop	{lr}		; (ldr lr, [sp], #4)
42005884:	e1b0f00e 	movs	pc, lr
42005888:	e3a00000 	mov	r0, #0
4200588c:	e5810000 	str	r0, [r1]
42005890:	e8bd101f 	pop	{r0, r1, r2, r3, r4, ip}
42005894:	f1020012 	cps	#18
42005898:	e49de004 	pop	{lr}		; (ldr lr, [sp], #4)
4200589c:	e16ff00e 	msr	SPSR_fsxc, lr
420058a0:	e49de004 	pop	{lr}		; (ldr lr, [sp], #4)
420058a4:	f96d051f 	srsdb	sp!, #31
420058a8:	f102001f 	cps	#31
420058ac:	e92d5fff 	push	{r0, r1, r2, r3, r4, r5, r6, r7, r8, r9, sl, fp, ip, lr}
420058b0:	e59f208c 	ldr	r2, [pc, #140]	; 42005944 <FreeRTOS_IRQ_Handler+0x14c>
420058b4:	e5921000 	ldr	r1, [r2]
420058b8:	e52d1004 	push	{r1}		; (str r1, [sp, #-4]!)
420058bc:	e59f2084 	ldr	r2, [pc, #132]	; 42005948 <FreeRTOS_IRQ_Handler+0x150>
420058c0:	e5923000 	ldr	r3, [r2]
420058c4:	e3530000 	cmp	r3, #0
420058c8:	1ef11a10 	vmrsne	r1, fpscr
420058cc:	1d2d0b20 	vpushne	{d0-d15}
420058d0:	1d6d0b20 	vpushne	{d16-d31}
420058d4:	152d1004 	pushne	{r1}		; (strne r1, [sp, #-4]!)
420058d8:	e52d3004 	push	{r3}		; (str r3, [sp, #-4]!)
420058dc:	e59f0068 	ldr	r0, [pc, #104]	; 4200594c <FreeRTOS_IRQ_Handler+0x154>
420058e0:	e5901000 	ldr	r1, [r0]
420058e4:	e581d000 	str	sp, [r1]
420058e8:	e59f0060 	ldr	r0, [pc, #96]	; 42005950 <FreeRTOS_IRQ_Handler+0x158>
420058ec:	e12fff30 	blx	r0
420058f0:	e59f0054 	ldr	r0, [pc, #84]	; 4200594c <FreeRTOS_IRQ_Handler+0x154>
420058f4:	e5901000 	ldr	r1, [r0]
420058f8:	e591d000 	ldr	sp, [r1]
420058fc:	e59f0044 	ldr	r0, [pc, #68]	; 42005948 <FreeRTOS_IRQ_Handler+0x150>
42005900:	e49d1004 	pop	{r1}		; (ldr r1, [sp], #4)
42005904:	e5801000 	str	r1, [r0]
42005908:	e3510000 	cmp	r1, #0
4200590c:	149d0004 	popne	{r0}		; (ldrne r0, [sp], #4)
42005910:	1cfd0b20 	vpopne	{d16-d31}
42005914:	1cbd0b20 	vpopne	{d0-d15}
42005918:	1ee10a10 	vmsrne	fpscr, r0
4200591c:	e59f0020 	ldr	r0, [pc, #32]	; 42005944 <FreeRTOS_IRQ_Handler+0x14c>
42005920:	e49d1004 	pop	{r1}		; (ldr r1, [sp], #4)
42005924:	e5801000 	str	r1, [r0]
42005928:	e59f2024 	ldr	r2, [pc, #36]	; 42005954 <FreeRTOS_IRQ_Handler+0x15c>
4200592c:	e3510000 	cmp	r1, #0
42005930:	03a040ff 	moveq	r4, #255	; 0xff
42005934:	159f401c 	ldrne	r4, [pc, #28]	; 42005958 <FreeRTOS_IRQ_Handler+0x160>
42005938:	e5824000 	str	r4, [r2]
4200593c:	e8bd5fff 	pop	{r0, r1, r2, r3, r4, r5, r6, r7, r8, r9, sl, fp, ip, lr}
42005940:	f8bd0a00 	rfeia	sp!
42005944:	420059f4 	andmi	r5, r0, #244, 18	; 0x3d0000
42005948:	420059f8 	andmi	r5, r0, #248, 18	; 0x3e0000
4200594c:	42005a04 	andmi	r5, r0, #4, 20	; 0x4000
42005950:	420024fc 	andmi	r2, r0, #252, 8	; 0xfc000000
42005954:	01c82004 	biceq	r2, r8, r4
42005958:	00000090 	muleq	r0, r0, r0
4200595c:	42005a00 	andmi	r5, r0, #0, 20
42005960:	01c8200c 	biceq	r2, r8, ip
42005964:	42000580 	andmi	r0, r0, #128, 10	; 0x20000000
42005968:	01c82010 	biceq	r2, r8, r0, lsl r0
4200596c:	420059fc 	andmi	r5, r0, #252, 18	; 0x3f0000
42005970:	4778      	bx	pc
42005972:	46c0      	nop			; (mov r8, r8)
42005974:	eafffc23 	b	42004a08 <_memset_w>

42005978 <_is_digit>:
42005978:	3830      	subs	r0, #48	; 0x30
4200597a:	280a      	cmp	r0, #10
4200597c:	d201      	bcs.n	42005982 <_is_digit+0xa>
4200597e:	2001      	movs	r0, #1
42005980:	4770      	bx	lr
42005982:	2000      	movs	r0, #0
42005984:	4770      	bx	lr

42005986 <_fp_init>:
42005986:	f04f 7040 	mov.w	r0, #50331648	; 0x3000000
4200598a:	eee1 0a10 	vmsr	fpscr, r0

4200598e <__fplib_config_fpu_vfp>:
4200598e:	4770      	bx	lr

Disassembly of section RO_DATA:

42005990 <uc_hextab>:
42005990:	33323130 	teqcc	r2, #48, 2
42005994:	37363534 			; <UNDEFINED> instruction: 0x37363534
42005998:	42413938 	submi	r3, r1, #56, 18	; 0xe0000
4200599c:	46454443 	strbmi	r4, [r5], -r3, asr #8
420059a0:	00583040 	subseq	r3, r8, r0, asr #32

420059a4 <lc_hextab>:
420059a4:	33323130 	teqcc	r2, #48, 2
420059a8:	37363534 			; <UNDEFINED> instruction: 0x37363534
420059ac:	62613938 	rsbvs	r3, r1, #56, 18	; 0xe0000
420059b0:	66656463 	strbtvs	r6, [r5], -r3, ror #8
420059b4:	00783040 	rsbseq	r3, r8, r0, asr #32

420059b8 <maptable>:
420059b8:	08000004 	stmdaeq	r0, {r2}
420059bc:	00000000 	andeq	r0, r0, r0
420059c0:	02000000 	andeq	r0, r0, #0
420059c4:	00000100 	andeq	r0, r0, r0, lsl #2
420059c8:	74743a10 	ldrbtvc	r3, [r4], #-2576	; 0xa10

420059c9 <__stdin_name>:
420059c9:	0074743a 	rsbseq	r7, r4, sl, lsr r4

420059cd <__stdout_name>:
420059cd:	0074743a 	rsbseq	r7, r4, sl, lsr r4

420059d1 <__stderr_name>:
420059d1:	0074743a 	rsbseq	r7, r4, sl, lsr r4
420059d5:	Address 0x00000000420059d5 is out of bounds.


Disassembly of section RW_DATA:

420059d8 <xFreeBytesRemaining>:
420059d8:	000167f8 	strdeq	r6, [r1], -r8

420059dc <xHeapHasBeenInitialised>:
420059dc:	00000000 	andeq	r0, r0, r0

420059e0 <xStart>:
	...

420059e8 <xEnd>:
	...

420059f0 <xQueue>:
420059f0:	00000000 	andeq	r0, r0, r0

420059f4 <ulCriticalNesting>:
420059f4:	0000270f 	andeq	r2, r0, pc, lsl #14

420059f8 <ulPortTaskHasFPUContext>:
420059f8:	00000000 	andeq	r0, r0, r0

420059fc <ulPortYieldRequired>:
420059fc:	00000000 	andeq	r0, r0, r0

42005a00 <ulPortInterruptNesting>:
42005a00:	00000000 	andeq	r0, r0, r0

42005a04 <pxCurrentTCB>:
42005a04:	00000000 	andeq	r0, r0, r0

42005a08 <uxDeletedTasksWaitingCleanUp>:
42005a08:	00000000 	andeq	r0, r0, r0

42005a0c <uxCurrentNumberOfTasks>:
42005a0c:	00000000 	andeq	r0, r0, r0

42005a10 <xTickCount>:
42005a10:	00000000 	andeq	r0, r0, r0

42005a14 <uxTopReadyPriority>:
42005a14:	00000000 	andeq	r0, r0, r0

42005a18 <xSchedulerRunning>:
42005a18:	00000000 	andeq	r0, r0, r0

42005a1c <uxPendedTicks>:
42005a1c:	00000000 	andeq	r0, r0, r0

42005a20 <xYieldPending>:
42005a20:	00000000 	andeq	r0, r0, r0

42005a24 <xNumOfOverflows>:
42005a24:	00000000 	andeq	r0, r0, r0

42005a28 <uxTaskNumber>:
42005a28:	00000000 	andeq	r0, r0, r0

42005a2c <xNextTaskUnblockTime>:
42005a2c:	00000000 	andeq	r0, r0, r0

42005a30 <xIdleTaskHandle>:
42005a30:	00000000 	andeq	r0, r0, r0

42005a34 <uxSchedulerSuspended>:
42005a34:	00000000 	andeq	r0, r0, r0

42005a38 <ulTaskSwitchedInTime>:
42005a38:	00000000 	andeq	r0, r0, r0

42005a3c <ulTotalRunTime>:
42005a3c:	00000000 	andeq	r0, r0, r0

42005a40 <pxDelayedTaskList>:
42005a40:	00000000 	andeq	r0, r0, r0

42005a44 <pxOverflowDelayedTaskList>:
42005a44:	00000000 	andeq	r0, r0, r0

42005a48 <xTimerQueue>:
42005a48:	00000000 	andeq	r0, r0, r0

42005a4c <xTimerTaskHandle>:
42005a4c:	00000000 	andeq	r0, r0, r0

42005a50 <xLastTime>:
42005a50:	00000000 	andeq	r0, r0, r0

42005a54 <pxCurrentTimerList>:
42005a54:	00000000 	andeq	r0, r0, r0

42005a58 <pxOverflowTimerList>:
42005a58:	00000000 	andeq	r0, r0, r0

42005a5c <__aeabi_stdin>:
42005a5c:	00000000 	andeq	r0, r0, r0

42005a60 <__aeabi_stdout>:
42005a60:	00000000 	andeq	r0, r0, r0

42005a64 <__aeabi_stderr>:
42005a64:	00000000 	andeq	r0, r0, r0

Disassembly of section ZI_DATA:

42005a68 <ucHeap>:
	...

4201c268 <xIdleTaskTCB>:
	...

4201c2c4 <uxIdleTaskStack>:
	...

4201c6ac <xTimerTaskTCB>:
	...

4201c708 <uxTimerTaskStack>:
	...

4201ced8 <xQueueRegistry>:
	...

4201cf18 <pxReadyTasksLists>:
	...

4201cfa4 <xDelayedTaskList1>:
	...

4201cfb8 <xDelayedTaskList2>:
	...

4201cfcc <xPendingReadyList>:
	...

4201cfe0 <xTasksWaitingTermination>:
	...

4201cff4 <xSuspendedTaskList>:
	...

4201d008 <xActiveTimerList1>:
	...

4201d01c <xActiveTimerList2>:
	...

4201d030 <uart>:
	...

4201d040 <__stdin>:
	...

4201d090 <__stdout>:
	...

4201d0e0 <__stderr>:
	...

4201d130 <__libspace_start>:
	...

Disassembly of section ARM_LIB_HEAP:

43040000 <Image$$ARM_LIB_HEAP$$ZI$$Base>:
	...

Disassembly of section ARM_LIB_STACK:

44080000 <Image$$ARM_LIB_STACK$$ZI$$Limit-0x10000>:
	...

Disassembly of section IRQ_STACK:

45090000 <IRQ_STACK>:
	...

Disassembly of section TTB:

46100000 <TTB>:
	...

Disassembly of section ER$$.ARM.__AT_0x00000090:

00000090 <ulAsmAPIPriorityMask>:
  90:	00000000 	andeq	r0, r0, r0

Disassembly of section ER$$.ARM.__AT_0x01C82004:

01c82004 <ulICCPMR>:
 1c82004:	00000000 	andeq	r0, r0, r0

Disassembly of section ER$$.ARM.__AT_0x01C8200C:

01c8200c <ulICCIAR>:
 1c8200c:	00000000 	andeq	r0, r0, r0

Disassembly of section ER$$.ARM.__AT_0x01C82010:

01c82010 <ulICCEOIR>:
 1c82010:	00000000 	andeq	r0, r0, r0

Disassembly of section .debug_frame:

00000000 <.debug_frame>:
       0:	00000060 	andeq	r0, r0, r0, rrx
       4:	ffffffff 			; <UNDEFINED> instruction: 0xffffffff
       8:	6d726103 	ldfvse	f6, [r2, #-12]!
       c:	002b6363 	eoreq	r6, fp, r3, ror #6
      10:	120e7c04 	andne	r7, lr, #4, 24	; 0x400
      14:	0007000d 	andeq	r0, r7, sp
      18:	02070107 	andeq	r0, r7, #-1073741823	; 0xc0000001
      1c:	04080307 	streq	r0, [r8], #-775	; 0x307
      20:	06080508 	streq	r0, [r8], -r8, lsl #10
      24:	08080708 	stmdaeq	r8, {r3, r8, r9, sl}
      28:	0a080908 	beq	202450 <ulAsmAPIPriorityMask+0x2023c0>
      2c:	0c070b08 	stceq	11, cr0, [r7], {8}
      30:	80070e08 	andhi	r0, r7, r8, lsl #28
      34:	02810702 	addeq	r0, r1, #524288	; 0x80000
      38:	07028207 	streq	r8, [r2, -r7, lsl #4]
      3c:	84070283 	strhi	r0, [r7], #-643	; 0x283
      40:	02850702 	addeq	r0, r5, #524288	; 0x80000
      44:	07028607 	streq	r8, [r2, -r7, lsl #12]
      48:	88080287 	stmdahi	r8, {r0, r1, r2, r7, r9}
      4c:	02890802 	addeq	r0, r9, #131072	; 0x20000
      50:	08028a08 	stmdaeq	r2, {r3, r9, fp, pc}
      54:	8c08028b 	sfmhi	f0, 4, [r8], {139}	; 0x8b
      58:	028d0802 	addeq	r0, sp, #131072	; 0x20000
      5c:	08028e08 	stmdaeq	r2, {r3, r9, sl, fp, pc}
      60:	0000028f 	andeq	r0, r0, pc, lsl #5
      64:	00000060 	andeq	r0, r0, r0, rrx
      68:	ffffffff 			; <UNDEFINED> instruction: 0xffffffff
      6c:	6d726103 	ldfvse	f6, [r2, #-12]!
      70:	002b6363 	eoreq	r6, fp, r3, ror #6
      74:	120e7c04 	andne	r7, lr, #4, 24	; 0x400
      78:	0007000d 	andeq	r0, r7, sp
      7c:	02080108 	andeq	r0, r8, #8, 2
      80:	04080308 	streq	r0, [r8], #-776	; 0x308
      84:	06080508 	streq	r0, [r8], -r8, lsl #10
      88:	08080708 	stmdaeq	r8, {r3, r8, r9, sl}
      8c:	0a080908 	beq	2024b4 <ulAsmAPIPriorityMask+0x202424>
      90:	0c080b08 	stceq	11, cr0, [r8], {8}
      94:	80080e08 	andhi	r0, r8, r8, lsl #28
      98:	02810802 	addeq	r0, r1, #131072	; 0x20000
      9c:	08028208 	stmdaeq	r2, {r3, r9, pc}
      a0:	84080283 	strhi	r0, [r8], #-643	; 0x283
      a4:	02850802 	addeq	r0, r5, #131072	; 0x20000
      a8:	08028608 	stmdaeq	r2, {r3, r9, sl, pc}
      ac:	88080287 	stmdahi	r8, {r0, r1, r2, r7, r9}
      b0:	02890802 	addeq	r0, r9, #131072	; 0x20000
      b4:	08028a08 	stmdaeq	r2, {r3, r9, fp, pc}
      b8:	8c08028b 	sfmhi	f0, 4, [r8], {139}	; 0x8b
      bc:	028d0802 	addeq	r0, sp, #131072	; 0x20000
      c0:	08028e08 	stmdaeq	r2, {r3, r9, sl, fp, pc}
      c4:	0000028f 	andeq	r0, r0, pc, lsl #5
      c8:	00000060 	andeq	r0, r0, r0, rrx
      cc:	ffffffff 			; <UNDEFINED> instruction: 0xffffffff
      d0:	6d726103 	ldfvse	f6, [r2, #-12]!
      d4:	002b6363 	eoreq	r6, fp, r3, ror #6
      d8:	120e7c04 	andne	r7, lr, #4, 24	; 0x400
      dc:	0008000d 	andeq	r0, r8, sp
      e0:	02080108 	andeq	r0, r8, #8, 2
      e4:	04080308 	streq	r0, [r8], #-776	; 0x308
      e8:	06080508 	streq	r0, [r8], -r8, lsl #10
      ec:	08080708 	stmdaeq	r8, {r3, r8, r9, sl}
      f0:	0a080908 	beq	202518 <ulAsmAPIPriorityMask+0x202488>
      f4:	0c080b08 	stceq	11, cr0, [r8], {8}
      f8:	80080e08 	andhi	r0, r8, r8, lsl #28
      fc:	02810802 	addeq	r0, r1, #131072	; 0x20000
     100:	08028208 	stmdaeq	r2, {r3, r9, pc}
     104:	84080283 	strhi	r0, [r8], #-643	; 0x283
     108:	02850802 	addeq	r0, r5, #131072	; 0x20000
     10c:	08028608 	stmdaeq	r2, {r3, r9, sl, pc}
     110:	88080287 	stmdahi	r8, {r0, r1, r2, r7, r9}
     114:	02890802 	addeq	r0, r9, #131072	; 0x20000
     118:	08028a08 	stmdaeq	r2, {r3, r9, fp, pc}
     11c:	8c08028b 	sfmhi	f0, 4, [r8], {139}	; 0x8b
     120:	028d0802 	addeq	r0, sp, #131072	; 0x20000
     124:	08028e08 	stmdaeq	r2, {r3, r9, sl, fp, pc}
     128:	0000028f 	andeq	r0, r0, pc, lsl #5
     12c:	00000060 	andeq	r0, r0, r0, rrx
     130:	ffffffff 			; <UNDEFINED> instruction: 0xffffffff
     134:	6d726103 	ldfvse	f6, [r2, #-12]!
     138:	002b6363 	eoreq	r6, fp, r3, ror #6
     13c:	120e7c04 	andne	r7, lr, #4, 24	; 0x400
     140:	0007000d 	andeq	r0, r7, sp
     144:	02070107 	andeq	r0, r7, #-1073741823	; 0xc0000001
     148:	04080307 	streq	r0, [r8], #-775	; 0x307
     14c:	06080508 	streq	r0, [r8], -r8, lsl #10
     150:	08080708 	stmdaeq	r8, {r3, r8, r9, sl}
     154:	0a080908 	beq	20257c <ulAsmAPIPriorityMask+0x2024ec>
     158:	0c080b08 	stceq	11, cr0, [r8], {8}
     15c:	80080e08 	andhi	r0, r8, r8, lsl #28
     160:	02810802 	addeq	r0, r1, #131072	; 0x20000
     164:	08028208 	stmdaeq	r2, {r3, r9, pc}
     168:	84080283 	strhi	r0, [r8], #-643	; 0x283
     16c:	02850802 	addeq	r0, r5, #131072	; 0x20000
     170:	08028608 	stmdaeq	r2, {r3, r9, sl, pc}
     174:	88080287 	stmdahi	r8, {r0, r1, r2, r7, r9}
     178:	02890802 	addeq	r0, r9, #131072	; 0x20000
     17c:	08028a08 	stmdaeq	r2, {r3, r9, fp, pc}
     180:	8c08028b 	sfmhi	f0, 4, [r8], {139}	; 0x8b
     184:	028d0802 	addeq	r0, sp, #131072	; 0x20000
     188:	08028e08 	stmdaeq	r2, {r3, r9, sl, fp, pc}
     18c:	0000028f 	andeq	r0, r0, pc, lsl #5
     190:	00000060 	andeq	r0, r0, r0, rrx
     194:	ffffffff 			; <UNDEFINED> instruction: 0xffffffff
     198:	6d726103 	ldfvse	f6, [r2, #-12]!
     19c:	002b6363 	eoreq	r6, fp, r3, ror #6
     1a0:	120e7c04 	andne	r7, lr, #4, 24	; 0x400
     1a4:	0007000d 	andeq	r0, r7, sp
     1a8:	02080107 	andeq	r0, r8, #-1073741823	; 0xc0000001
     1ac:	04080308 	streq	r0, [r8], #-776	; 0x308
     1b0:	06080508 	streq	r0, [r8], -r8, lsl #10
     1b4:	08080708 	stmdaeq	r8, {r3, r8, r9, sl}
     1b8:	0a080908 	beq	2025e0 <ulAsmAPIPriorityMask+0x202550>
     1bc:	0c080b08 	stceq	11, cr0, [r8], {8}
     1c0:	80080e08 	andhi	r0, r8, r8, lsl #28
     1c4:	02810802 	addeq	r0, r1, #131072	; 0x20000
     1c8:	08028208 	stmdaeq	r2, {r3, r9, pc}
     1cc:	84080283 	strhi	r0, [r8], #-643	; 0x283
     1d0:	02850802 	addeq	r0, r5, #131072	; 0x20000
     1d4:	08028608 	stmdaeq	r2, {r3, r9, sl, pc}
     1d8:	88080287 	stmdahi	r8, {r0, r1, r2, r7, r9}
     1dc:	02890802 	addeq	r0, r9, #131072	; 0x20000
     1e0:	08028a08 	stmdaeq	r2, {r3, r9, fp, pc}
     1e4:	8c08028b 	sfmhi	f0, 4, [r8], {139}	; 0x8b
     1e8:	028d0802 	addeq	r0, sp, #131072	; 0x20000
     1ec:	08028e08 	stmdaeq	r2, {r3, r9, sl, fp, pc}
     1f0:	0000028f 	andeq	r0, r0, pc, lsl #5
     1f4:	00000060 	andeq	r0, r0, r0, rrx
     1f8:	ffffffff 			; <UNDEFINED> instruction: 0xffffffff
     1fc:	6d726103 	ldfvse	f6, [r2, #-12]!
     200:	002b6363 	eoreq	r6, fp, r3, ror #6
     204:	120e7c04 	andne	r7, lr, #4, 24	; 0x400
     208:	0007000d 	andeq	r0, r7, sp
     20c:	02070107 	andeq	r0, r7, #-1073741823	; 0xc0000001
     210:	04080307 	streq	r0, [r8], #-775	; 0x307
     214:	06080508 	streq	r0, [r8], -r8, lsl #10
     218:	08080708 	stmdaeq	r8, {r3, r8, r9, sl}
     21c:	0a080908 	beq	202644 <ulAsmAPIPriorityMask+0x2025b4>
     220:	0c070b08 	stceq	11, cr0, [r7], {8}
     224:	80080e08 	andhi	r0, r8, r8, lsl #28
     228:	02810802 	addeq	r0, r1, #131072	; 0x20000
     22c:	08028208 	stmdaeq	r2, {r3, r9, pc}
     230:	84080283 	strhi	r0, [r8], #-643	; 0x283
     234:	02850802 	addeq	r0, r5, #131072	; 0x20000
     238:	08028608 	stmdaeq	r2, {r3, r9, sl, pc}
     23c:	88080287 	stmdahi	r8, {r0, r1, r2, r7, r9}
     240:	02890802 	addeq	r0, r9, #131072	; 0x20000
     244:	08028a08 	stmdaeq	r2, {r3, r9, fp, pc}
     248:	8c08028b 	sfmhi	f0, 4, [r8], {139}	; 0x8b
     24c:	028d0802 	addeq	r0, sp, #131072	; 0x20000
     250:	08028e08 	stmdaeq	r2, {r3, r9, sl, fp, pc}
     254:	0000028f 	andeq	r0, r0, pc, lsl #5
     258:	00000060 	andeq	r0, r0, r0, rrx
     25c:	ffffffff 			; <UNDEFINED> instruction: 0xffffffff
     260:	6d726103 	ldfvse	f6, [r2, #-12]!
     264:	002b6363 	eoreq	r6, fp, r3, ror #6
     268:	120e7c04 	andne	r7, lr, #4, 24	; 0x400
     26c:	0007000d 	andeq	r0, r7, sp
     270:	02070107 	andeq	r0, r7, #-1073741823	; 0xc0000001
     274:	04080308 	streq	r0, [r8], #-776	; 0x308
     278:	06080508 	streq	r0, [r8], -r8, lsl #10
     27c:	08080708 	stmdaeq	r8, {r3, r8, r9, sl}
     280:	0a080908 	beq	2026a8 <ulAsmAPIPriorityMask+0x202618>
     284:	0c080b08 	stceq	11, cr0, [r8], {8}
     288:	80080e08 	andhi	r0, r8, r8, lsl #28
     28c:	02810802 	addeq	r0, r1, #131072	; 0x20000
     290:	08028208 	stmdaeq	r2, {r3, r9, pc}
     294:	84080283 	strhi	r0, [r8], #-643	; 0x283
     298:	02850802 	addeq	r0, r5, #131072	; 0x20000
     29c:	08028608 	stmdaeq	r2, {r3, r9, sl, pc}
     2a0:	88080287 	stmdahi	r8, {r0, r1, r2, r7, r9}
     2a4:	02890802 	addeq	r0, r9, #131072	; 0x20000
     2a8:	08028a08 	stmdaeq	r2, {r3, r9, fp, pc}
     2ac:	8c08028b 	sfmhi	f0, 4, [r8], {139}	; 0x8b
     2b0:	028d0802 	addeq	r0, sp, #131072	; 0x20000
     2b4:	08028e08 	stmdaeq	r2, {r3, r9, sl, fp, pc}
     2b8:	0000028f 	andeq	r0, r0, pc, lsl #5
     2bc:	00000090 	muleq	r0, r0, r0
     2c0:	ffffffff 			; <UNDEFINED> instruction: 0xffffffff
     2c4:	6d726103 	ldfvse	f6, [r2, #-12]!
     2c8:	002b6363 	eoreq	r6, fp, r3, ror #6
     2cc:	120e7c01 	andne	r7, lr, #256	; 0x100
     2d0:	0007000d 	andeq	r0, r7, sp
     2d4:	02070107 	andeq	r0, r7, #-1073741823	; 0xc0000001
     2d8:	04080307 	streq	r0, [r8], #-775	; 0x307
     2dc:	06080508 	streq	r0, [r8], -r8, lsl #10
     2e0:	08080708 	stmdaeq	r8, {r3, r8, r9, sl}
     2e4:	0a080908 	beq	20270c <ulAsmAPIPriorityMask+0x20267c>
     2e8:	0c070b08 	stceq	11, cr0, [r7], {8}
     2ec:	80070e08 	andhi	r0, r7, r8, lsl #28
     2f0:	02810702 	addeq	r0, r1, #524288	; 0x80000
     2f4:	07028207 	streq	r8, [r2, -r7, lsl #4]
     2f8:	84070283 	strhi	r0, [r7], #-643	; 0x283
     2fc:	02850702 	addeq	r0, r5, #524288	; 0x80000
     300:	07028607 	streq	r8, [r2, -r7, lsl #12]
     304:	88080287 	stmdahi	r8, {r0, r1, r2, r7, r9}
     308:	02890802 	addeq	r0, r9, #131072	; 0x20000
     30c:	08028a08 	stmdaeq	r2, {r3, r9, fp, pc}
     310:	8c08028b 	sfmhi	f0, 4, [r8], {139}	; 0x8b
     314:	028d0802 	addeq	r0, sp, #131072	; 0x20000
     318:	08028e08 	stmdaeq	r2, {r3, r9, sl, fp, pc}
     31c:	9007028f 	andls	r0, r7, pc, lsl #5
     320:	02910702 	addseq	r0, r1, #524288	; 0x80000
     324:	07029207 	streq	r9, [r2, -r7, lsl #4]
     328:	94070293 	strls	r0, [r7], #-659	; 0x293
     32c:	02950702 	addseq	r0, r5, #524288	; 0x80000
     330:	07029607 	streq	r9, [r2, -r7, lsl #12]
     334:	98070297 	stmdals	r7, {r0, r1, r2, r4, r7, r9}
     338:	02990702 	addseq	r0, r9, #524288	; 0x80000
     33c:	07029a07 	streq	r9, [r2, -r7, lsl #20]
     340:	9c07029b 	sfmls	f0, 4, [r7], {155}	; 0x9b
     344:	029d0702 	addseq	r0, sp, #524288	; 0x80000
     348:	07029e07 	streq	r9, [r2, -r7, lsl #28]
     34c:	0000029f 	muleq	r0, pc, r2	; <UNPREDICTABLE>
     350:	00000030 	andeq	r0, r0, r0, lsr r0
     354:	ffffffff 			; <UNDEFINED> instruction: 0xffffffff
     358:	6d726103 	ldfvse	f6, [r2, #-12]!
     35c:	002b6363 	eoreq	r6, fp, r3, ror #6
     360:	120e7c02 	andne	r7, lr, #512	; 0x200
     364:	0007000d 	andeq	r0, r7, sp
     368:	02070107 	andeq	r0, r7, #-1073741823	; 0xc0000001
     36c:	04080307 	streq	r0, [r8], #-775	; 0x307
     370:	06080508 	streq	r0, [r8], -r8, lsl #10
     374:	08080708 	stmdaeq	r8, {r3, r8, r9, sl}
     378:	0a080908 	beq	2027a0 <ulAsmAPIPriorityMask+0x202710>
     37c:	0c070b08 	stceq	11, cr0, [r7], {8}
     380:	00000e08 	andeq	r0, r0, r8, lsl #28
     384:	00000030 	andeq	r0, r0, r0, lsr r0
     388:	ffffffff 			; <UNDEFINED> instruction: 0xffffffff
     38c:	6d726103 	ldfvse	f6, [r2, #-12]!
     390:	002b6363 	eoreq	r6, fp, r3, ror #6
     394:	120e7c01 	andne	r7, lr, #256	; 0x100
     398:	0007000d 	andeq	r0, r7, sp
     39c:	02070107 	andeq	r0, r7, #-1073741823	; 0xc0000001
     3a0:	04080307 	streq	r0, [r8], #-775	; 0x307
     3a4:	06080508 	streq	r0, [r8], -r8, lsl #10
     3a8:	08080708 	stmdaeq	r8, {r3, r8, r9, sl}
     3ac:	0a080908 	beq	2027d4 <ulAsmAPIPriorityMask+0x202744>
     3b0:	0c070b08 	stceq	11, cr0, [r7], {8}
     3b4:	00000e08 	andeq	r0, r0, r8, lsl #28
     3b8:	00000030 	andeq	r0, r0, r0, lsr r0
     3bc:	ffffffff 			; <UNDEFINED> instruction: 0xffffffff
     3c0:	6d726103 	ldfvse	f6, [r2, #-12]!
     3c4:	002b6363 	eoreq	r6, fp, r3, ror #6
     3c8:	120e7c02 	andne	r7, lr, #512	; 0x200
     3cc:	0008000d 	andeq	r0, r8, sp
     3d0:	02080108 	andeq	r0, r8, #8, 2
     3d4:	04080308 	streq	r0, [r8], #-776	; 0x308
     3d8:	06080508 	streq	r0, [r8], -r8, lsl #10
     3dc:	08080708 	stmdaeq	r8, {r3, r8, r9, sl}
     3e0:	0a080908 	beq	202808 <ulAsmAPIPriorityMask+0x202778>
     3e4:	0c080b08 	stceq	11, cr0, [r8], {8}
     3e8:	00000e08 	andeq	r0, r0, r8, lsl #28
     3ec:	00000060 	andeq	r0, r0, r0, rrx
     3f0:	ffffffff 			; <UNDEFINED> instruction: 0xffffffff
     3f4:	6d726103 	ldfvse	f6, [r2, #-12]!
     3f8:	002b6363 	eoreq	r6, fp, r3, ror #6
     3fc:	120e7c01 	andne	r7, lr, #256	; 0x100
     400:	0007000d 	andeq	r0, r7, sp
     404:	02070107 	andeq	r0, r7, #-1073741823	; 0xc0000001
     408:	04080307 	streq	r0, [r8], #-775	; 0x307
     40c:	06080508 	streq	r0, [r8], -r8, lsl #10
     410:	08080708 	stmdaeq	r8, {r3, r8, r9, sl}
     414:	0a080908 	beq	20283c <ulAsmAPIPriorityMask+0x2027ac>
     418:	0c070b08 	stceq	11, cr0, [r7], {8}
     41c:	80070e08 	andhi	r0, r7, r8, lsl #28
     420:	02810702 	addeq	r0, r1, #524288	; 0x80000
     424:	07028207 	streq	r8, [r2, -r7, lsl #4]
     428:	84070283 	strhi	r0, [r7], #-643	; 0x283
     42c:	02850702 	addeq	r0, r5, #524288	; 0x80000
     430:	07028607 	streq	r8, [r2, -r7, lsl #12]
     434:	88080287 	stmdahi	r8, {r0, r1, r2, r7, r9}
     438:	02890802 	addeq	r0, r9, #131072	; 0x20000
     43c:	08028a08 	stmdaeq	r2, {r3, r9, fp, pc}
     440:	8c08028b 	sfmhi	f0, 4, [r8], {139}	; 0x8b
     444:	028d0802 	addeq	r0, sp, #131072	; 0x20000
     448:	08028e08 	stmdaeq	r2, {r3, r9, sl, fp, pc}
     44c:	0000028f 	andeq	r0, r0, pc, lsl #5
     450:	0000001c 	andeq	r0, r0, ip, lsl r0
     454:	00000000 	andeq	r0, r0, r0
     458:	420001bc 	andmi	r0, r0, #188, 2	; 0x2f
     45c:	00000118 	andeq	r0, r0, r8, lsl r1
     460:	847a1341 	ldrbthi	r1, [sl], #-833	; 0x341
     464:	86058506 	strhi	r8, [r5], -r6, lsl #10
     468:	88038704 	stmdahi	r3, {r2, r8, r9, sl, pc}
     46c:	00018e02 	andeq	r8, r1, r2, lsl #28
     470:	00000018 	andeq	r0, r0, r8, lsl r0
     474:	00000000 	andeq	r0, r0, r0
     478:	420002d4 	andmi	r0, r0, #212, 4	; 0x4000000d
     47c:	00000054 	andeq	r0, r0, r4, asr r0
     480:	847e1341 	ldrbthi	r1, [lr], #-833	; 0x341
     484:	53018e02 	movwpl	r8, #7682	; 0x1e02
     488:	cec40013 	mcrgt	0, 6, r0, cr4, cr3, {0}
     48c:	0000000c 	andeq	r0, r0, ip
     490:	00000064 	andeq	r0, r0, r4, rrx
     494:	42000328 	andmi	r0, r0, #40, 6	; 0xa0000000
     498:	0000000c 	andeq	r0, r0, ip
     49c:	0000000c 	andeq	r0, r0, ip
     4a0:	000000c8 	andeq	r0, r0, r8, asr #1
     4a4:	42000334 	andmi	r0, r0, #52, 6	; 0xd0000000
     4a8:	00000004 	andeq	r0, r0, r4
     4ac:	0000000c 	andeq	r0, r0, ip
     4b0:	0000012c 	andeq	r0, r0, ip, lsr #2
     4b4:	4200034c 	andmi	r0, r0, #76, 6	; 0x30000001
     4b8:	00000024 	andeq	r0, r0, r4, lsr #32
     4bc:	0000000c 	andeq	r0, r0, ip
     4c0:	00000190 	muleq	r0, r0, r1
     4c4:	42000370 	andmi	r0, r0, #112, 6	; 0xc0000001
     4c8:	0000000c 	andeq	r0, r0, ip
     4cc:	0000000c 	andeq	r0, r0, ip
     4d0:	0000012c 	andeq	r0, r0, ip, lsr #2
     4d4:	4200037c 	andmi	r0, r0, #124, 6	; 0xf0000001
     4d8:	00000030 	andeq	r0, r0, r0, lsr r0
     4dc:	00000014 	andeq	r0, r0, r4, lsl r0
     4e0:	000001f4 	strdeq	r0, [r0], -r4
     4e4:	420003ac 	andmi	r0, r0, #172, 6	; 0xb0000002
     4e8:	00000054 	andeq	r0, r0, r4, asr r0
     4ec:	847e1341 	ldrbthi	r1, [lr], #-833	; 0x341
     4f0:	00018e02 	andeq	r8, r1, r2, lsl #28
     4f4:	0000000c 	andeq	r0, r0, ip
     4f8:	0000012c 	andeq	r0, r0, ip, lsr #2
     4fc:	42000400 	andmi	r0, r0, #0, 8
     500:	00000044 	andeq	r0, r0, r4, asr #32
     504:	00000014 	andeq	r0, r0, r4, lsl r0
     508:	00000000 	andeq	r0, r0, r0
     50c:	42000444 	andmi	r0, r0, #68, 8	; 0x44000000
     510:	00000030 	andeq	r0, r0, r0, lsr r0
     514:	8e7e1341 	cdphi	3, 7, cr1, cr14, cr1, {2}
     518:	00000001 	andeq	r0, r0, r1
     51c:	00000014 	andeq	r0, r0, r4, lsl r0
     520:	00000000 	andeq	r0, r0, r0
     524:	42000474 	andmi	r0, r0, #116, 8	; 0x74000000
     528:	0000005c 	andeq	r0, r0, ip, asr r0
     52c:	847c1341 	ldrbthi	r1, [ip], #-833	; 0x341
     530:	00018e02 	andeq	r8, r1, r2, lsl #28
     534:	00000014 	andeq	r0, r0, r4, lsl r0
     538:	00000000 	andeq	r0, r0, r0
     53c:	420004d0 	andmi	r0, r0, #208, 8	; 0xd0000000
     540:	00000074 	andeq	r0, r0, r4, ror r0
     544:	847c1341 	ldrbthi	r1, [ip], #-833	; 0x341
     548:	00018e02 	andeq	r8, r1, r2, lsl #28
     54c:	00000020 	andeq	r0, r0, r0, lsr #32
     550:	00000000 	andeq	r0, r0, r0
     554:	42000544 	andmi	r0, r0, #68, 10	; 0x11000000
     558:	0000003c 	andeq	r0, r0, ip, lsr r0
     55c:	847c1341 	ldrbthi	r1, [ip], #-833	; 0x341
     560:	86038504 	strhi	r8, [r3], -r4, lsl #10
     564:	4d018e02 	stcmi	14, cr8, [r1, #-8]
     568:	c5c40013 	strbgt	r0, [r4, #19]
     56c:	0000cec6 	andeq	ip, r0, r6, asr #29
     570:	00000020 	andeq	r0, r0, r0, lsr #32
     574:	00000000 	andeq	r0, r0, r0
     578:	42000580 	andmi	r0, r0, #128, 10	; 0x20000000
     57c:	00000030 	andeq	r0, r0, r0, lsr r0
     580:	847e1341 	ldrbthi	r1, [lr], #-833	; 0x341
     584:	0a018e02 	beq	63d94 <ulAsmAPIPriorityMask+0x63d04>
     588:	c4001344 	strgt	r1, [r0], #-836	; 0x344
     58c:	440b42ce 	strmi	r4, [fp], #-718	; 0x2ce
     590:	cec40013 	mcrgt	0, 6, r0, cr4, cr3, {0}
     594:	0000000c 	andeq	r0, r0, ip
     598:	000000c8 	andeq	r0, r0, r8, asr #1
     59c:	420005b0 	andmi	r0, r0, #176, 10	; 0x2c000000
     5a0:	00000004 	andeq	r0, r0, r4
     5a4:	00000018 	andeq	r0, r0, r8, lsl r0
     5a8:	00000000 	andeq	r0, r0, r0
     5ac:	420005b4 	andmi	r0, r0, #180, 10	; 0x2d000000
     5b0:	00000014 	andeq	r0, r0, r4, lsl r0
     5b4:	847e1341 	ldrbthi	r1, [lr], #-833	; 0x341
     5b8:	43018e02 	movwmi	r8, #7682	; 0x1e02
     5bc:	cec40013 	mcrgt	0, 6, r0, cr4, cr3, {0}
     5c0:	0000000c 	andeq	r0, r0, ip
     5c4:	00000000 	andeq	r0, r0, r0
     5c8:	420005c8 	andmi	r0, r0, #200, 10	; 0x32000000
     5cc:	00000008 	andeq	r0, r0, r8
     5d0:	00000018 	andeq	r0, r0, r8, lsl r0
     5d4:	00000000 	andeq	r0, r0, r0
     5d8:	420005d0 	andmi	r0, r0, #208, 10	; 0x34000000
     5dc:	00000158 	andeq	r0, r0, r8, asr r1
     5e0:	847c1341 	ldrbthi	r1, [ip], #-833	; 0x341
     5e4:	86038504 	strhi	r8, [r3], -r4, lsl #10
     5e8:	00018e02 	andeq	r8, r1, r2, lsl #28
     5ec:	0000000c 	andeq	r0, r0, ip
     5f0:	000000c8 	andeq	r0, r0, r8, asr #1
     5f4:	42000728 	andmi	r0, r0, #40, 14	; 0xa00000
     5f8:	00000004 	andeq	r0, r0, r4
     5fc:	00000010 	andeq	r0, r0, r0, lsl r0
     600:	00000000 	andeq	r0, r0, r0
     604:	4200072c 	andmi	r0, r0, #44, 14	; 0xb00000
     608:	00000010 	andeq	r0, r0, r0, lsl r0
     60c:	00000e07 	andeq	r0, r0, r7, lsl #28
     610:	0000000c 	andeq	r0, r0, ip
     614:	000000c8 	andeq	r0, r0, r8, asr #1
     618:	4200073c 	andmi	r0, r0, #60, 14	; 0xf00000
     61c:	00000004 	andeq	r0, r0, r4
     620:	0000000c 	andeq	r0, r0, ip
     624:	00000000 	andeq	r0, r0, r0
     628:	42000740 	andmi	r0, r0, #64, 14	; 0x1000000
     62c:	00000008 	andeq	r0, r0, r8
     630:	00000018 	andeq	r0, r0, r8, lsl r0
     634:	00000000 	andeq	r0, r0, r0
     638:	42000748 	andmi	r0, r0, #72, 14	; 0x1200000
     63c:	00000034 	andeq	r0, r0, r4, lsr r0
     640:	847c1341 	ldrbthi	r1, [ip], #-833	; 0x341
     644:	86038504 	strhi	r8, [r3], -r4, lsl #10
     648:	00018e02 	andeq	r8, r1, r2, lsl #28
     64c:	00000010 	andeq	r0, r0, r0, lsl r0
     650:	00000000 	andeq	r0, r0, r0
     654:	4200077c 	andmi	r0, r0, #124, 14	; 0x1f00000
     658:	00000010 	andeq	r0, r0, r0, lsl r0
     65c:	00000e07 	andeq	r0, r0, r7, lsl #28
     660:	0000000c 	andeq	r0, r0, ip
     664:	00000258 	andeq	r0, r0, r8, asr r2
     668:	4200082c 	andmi	r0, r0, #44, 16	; 0x2c0000
     66c:	00000028 	andeq	r0, r0, r8, lsr #32
     670:	00000010 	andeq	r0, r0, r0, lsl r0
     674:	00000000 	andeq	r0, r0, r0
     678:	42000854 	andmi	r0, r0, #84, 16	; 0x540000
     67c:	00000020 	andeq	r0, r0, r0, lsr #32
     680:	00000e07 	andeq	r0, r0, r7, lsl #28
     684:	00000014 	andeq	r0, r0, r4, lsl r0
     688:	000001f4 	strdeq	r0, [r0], -r4
     68c:	42000874 	andmi	r0, r0, #116, 16	; 0x740000
     690:	000000a4 	andeq	r0, r0, r4, lsr #1
     694:	847e1341 	ldrbthi	r1, [lr], #-833	; 0x341
     698:	00018e02 	andeq	r8, r1, r2, lsl #28
     69c:	00000014 	andeq	r0, r0, r4, lsl r0
     6a0:	00000000 	andeq	r0, r0, r0
     6a4:	42000918 	andmi	r0, r0, #24, 18	; 0x60000
     6a8:	00000064 	andeq	r0, r0, r4, rrx
     6ac:	847e1341 	ldrbthi	r1, [lr], #-833	; 0x341
     6b0:	00018e02 	andeq	r8, r1, r2, lsl #28
     6b4:	0000000c 	andeq	r0, r0, ip
     6b8:	00000000 	andeq	r0, r0, r0
     6bc:	4200097c 	andmi	r0, r0, #124, 18	; 0x1f0000
     6c0:	0000001c 	andeq	r0, r0, ip, lsl r0
     6c4:	00000018 	andeq	r0, r0, r8, lsl r0
     6c8:	00000000 	andeq	r0, r0, r0
     6cc:	42000998 	andmi	r0, r0, #152, 18	; 0x260000
     6d0:	00000040 	andeq	r0, r0, r0, asr #32
     6d4:	847e1341 	ldrbthi	r1, [lr], #-833	; 0x341
     6d8:	4d018e02 	stcmi	14, cr8, [r1, #-8]
     6dc:	cec40013 	mcrgt	0, 6, r0, cr4, cr3, {0}
     6e0:	0000000c 	andeq	r0, r0, ip
     6e4:	00000190 	muleq	r0, r0, r1
     6e8:	420009d8 	andmi	r0, r0, #216, 18	; 0x360000
     6ec:	00000040 	andeq	r0, r0, r0, asr #32
     6f0:	0000001c 	andeq	r0, r0, ip, lsl r0
     6f4:	00000000 	andeq	r0, r0, r0
     6f8:	42000a18 	andmi	r0, r0, #24, 20	; 0x18000
     6fc:	00000080 	andeq	r0, r0, r0, lsl #1
     700:	847e1341 	ldrbthi	r1, [lr], #-833	; 0x341
     704:	0a018e02 	beq	63f14 <ulAsmAPIPriorityMask+0x63e84>
     708:	c400134f 	strgt	r1, [r0], #-847	; 0x34f
     70c:	000b41ce 	andeq	r4, fp, lr, asr #3
     710:	0000000c 	andeq	r0, r0, ip
     714:	00000258 	andeq	r0, r0, r8, asr r2
     718:	42000a98 	andmi	r0, r0, #152, 20	; 0x98000
     71c:	00000018 	andeq	r0, r0, r8, lsl r0
     720:	0000000c 	andeq	r0, r0, ip
     724:	00000190 	muleq	r0, r0, r1
     728:	42000ab0 	andmi	r0, r0, #176, 20	; 0xb0000
     72c:	00000020 	andeq	r0, r0, r0, lsr #32
     730:	00000018 	andeq	r0, r0, r8, lsl r0
     734:	00000000 	andeq	r0, r0, r0
     738:	42000ad0 	andmi	r0, r0, #208, 20	; 0xd0000
     73c:	00000038 	andeq	r0, r0, r8, lsr r0
     740:	847e1341 	ldrbthi	r1, [lr], #-833	; 0x341
     744:	4b018e02 	blmi	63f54 <ulAsmAPIPriorityMask+0x63ec4>
     748:	cec40013 	mcrgt	0, 6, r0, cr4, cr3, {0}
     74c:	00000018 	andeq	r0, r0, r8, lsl r0
     750:	00000000 	andeq	r0, r0, r0
     754:	42000b08 	andmi	r0, r0, #8, 22	; 0x2000
     758:	0000009c 	muleq	r0, ip, r0
     75c:	847c1341 	ldrbthi	r1, [ip], #-833	; 0x341
     760:	86038504 	strhi	r8, [r3], -r4, lsl #10
     764:	00018e02 	andeq	r8, r1, r2, lsl #28
     768:	0000001c 	andeq	r0, r0, ip, lsl r0
     76c:	00000000 	andeq	r0, r0, r0
     770:	42000ba4 	andmi	r0, r0, #164, 22	; 0x29000
     774:	00000070 	andeq	r0, r0, r0, ror r0
     778:	847a1341 	ldrbthi	r1, [sl], #-833	; 0x341
     77c:	86058506 	strhi	r8, [r5], -r6, lsl #10
     780:	88038704 	stmdahi	r3, {r2, r8, r9, sl, pc}
     784:	00018e02 	andeq	r8, r1, r2, lsl #28
     788:	0000001c 	andeq	r0, r0, ip, lsl r0
     78c:	00000000 	andeq	r0, r0, r0
     790:	42000c14 	andmi	r0, r0, #20, 24	; 0x1400
     794:	000000c8 	andeq	r0, r0, r8, asr #1
     798:	847a1341 	ldrbthi	r1, [sl], #-833	; 0x341
     79c:	86058506 	strhi	r8, [r5], -r6, lsl #10
     7a0:	88038704 	stmdahi	r3, {r2, r8, r9, sl, pc}
     7a4:	00018e02 	andeq	r8, r1, r2, lsl #28
     7a8:	0000001c 	andeq	r0, r0, ip, lsl r0
     7ac:	00000000 	andeq	r0, r0, r0
     7b0:	42000cdc 	andmi	r0, r0, #220, 24	; 0xdc00
     7b4:	000000a4 	andeq	r0, r0, r4, lsr #1
     7b8:	84781341 	ldrbthi	r1, [r8], #-833	; 0x341
     7bc:	86058506 	strhi	r8, [r5], -r6, lsl #10
     7c0:	88038704 	stmdahi	r3, {r2, r8, r9, sl, pc}
     7c4:	00018e02 	andeq	r8, r1, r2, lsl #28
     7c8:	00000020 	andeq	r0, r0, r0, lsr #32
     7cc:	00000000 	andeq	r0, r0, r0
     7d0:	42000d80 	andmi	r0, r0, #128, 26	; 0x2000
     7d4:	000000ac 	andeq	r0, r0, ip, lsr #1
     7d8:	847c1341 	ldrbthi	r1, [ip], #-833	; 0x341
     7dc:	86038504 	strhi	r8, [r3], -r4, lsl #10
     7e0:	69018e02 	stmdbvs	r1, {r1, r9, sl, fp, pc}
     7e4:	c5c40013 	strbgt	r0, [r4, #19]
     7e8:	0000cec6 	andeq	ip, r0, r6, asr #29
     7ec:	00000028 	andeq	r0, r0, r8, lsr #32
     7f0:	00000000 	andeq	r0, r0, r0
     7f4:	42000e2c 	andmi	r0, r0, #44, 28	; 0x2c0
     7f8:	000001dc 	ldrdeq	r0, [r0], -ip
     7fc:	84751341 	ldrbthi	r1, [r5], #-833	; 0x341
     800:	86068507 	strhi	r8, [r6], -r7, lsl #10
     804:	88048705 	stmdahi	r4, {r0, r2, r8, r9, sl, pc}
     808:	8e028903 	cdphi	9, 0, cr8, cr2, cr3, {0}
     80c:	72134201 	andsvc	r4, r3, #268435456	; 0x10000000
     810:	79134402 	ldmdbvc	r3, {r1, sl, lr}
     814:	00721341 	rsbseq	r1, r2, r1, asr #6
     818:	00000014 	andeq	r0, r0, r4, lsl r0
     81c:	00000000 	andeq	r0, r0, r0
     820:	42001008 	andmi	r1, r0, #8
     824:	00000040 	andeq	r0, r0, r0, asr #32
     828:	847e1343 	ldrbthi	r1, [lr], #-835	; 0x343
     82c:	00018e02 	andeq	r8, r1, r2, lsl #28
     830:	00000014 	andeq	r0, r0, r4, lsl r0
     834:	00000000 	andeq	r0, r0, r0
     838:	42001048 	andmi	r1, r0, #72	; 0x48
     83c:	00000054 	andeq	r0, r0, r4, asr r0
     840:	847e1341 	ldrbthi	r1, [lr], #-833	; 0x341
     844:	00018e02 	andeq	r8, r1, r2, lsl #28
     848:	00000024 	andeq	r0, r0, r4, lsr #32
     84c:	00000000 	andeq	r0, r0, r0
     850:	4200109c 	andmi	r1, r0, #156	; 0x9c
     854:	000001dc 	ldrdeq	r0, [r0], -ip
     858:	84791341 	ldrbthi	r1, [r9], #-833	; 0x341
     85c:	86048505 	strhi	r8, [r4], -r5, lsl #10
     860:	8e028703 	cdphi	7, 0, cr8, cr2, cr3, {0}
     864:	76134301 	ldrvc	r4, [r3], -r1, lsl #6
     868:	417b1367 	cmnmi	fp, r7, ror #6
     86c:	00007613 	andeq	r7, r0, r3, lsl r6
     870:	00000018 	andeq	r0, r0, r8, lsl r0
     874:	00000000 	andeq	r0, r0, r0
     878:	42001278 	andmi	r1, r0, #120, 4	; 0x80000007
     87c:	0000005c 	andeq	r0, r0, ip, asr r0
     880:	847c1341 	ldrbthi	r1, [ip], #-833	; 0x341
     884:	86038504 	strhi	r8, [r3], -r4, lsl #10
     888:	00018e02 	andeq	r8, r1, r2, lsl #28
     88c:	00000018 	andeq	r0, r0, r8, lsl r0
     890:	00000000 	andeq	r0, r0, r0
     894:	420012d4 	andmi	r1, r0, #212, 4	; 0x4000000d
     898:	00000044 	andeq	r0, r0, r4, asr #32
     89c:	847c1341 	ldrbthi	r1, [ip], #-833	; 0x341
     8a0:	86038504 	strhi	r8, [r3], -r4, lsl #10
     8a4:	00018e02 	andeq	r8, r1, r2, lsl #28
     8a8:	00000020 	andeq	r0, r0, r0, lsr #32
     8ac:	00000000 	andeq	r0, r0, r0
     8b0:	42001318 	andmi	r1, r0, #24, 6	; 0x60000000
     8b4:	00000100 	andeq	r0, r0, r0, lsl #2
     8b8:	84781341 	ldrbthi	r1, [r8], #-833	; 0x341
     8bc:	86078508 	strhi	r8, [r7], -r8, lsl #10
     8c0:	88058706 	stmdahi	r5, {r1, r2, r8, r9, sl, pc}
     8c4:	8a038904 	bhi	e2cdc <ulAsmAPIPriorityMask+0xe2c4c>
     8c8:	00018e02 	andeq	r8, r1, r2, lsl #28
     8cc:	0000001c 	andeq	r0, r0, ip, lsl r0
     8d0:	00000000 	andeq	r0, r0, r0
     8d4:	42001418 	andmi	r1, r0, #24, 8	; 0x18000000
     8d8:	000000e0 	andeq	r0, r0, r0, ror #1
     8dc:	847a1341 	ldrbthi	r1, [sl], #-833	; 0x341
     8e0:	86058506 	strhi	r8, [r5], -r6, lsl #10
     8e4:	88038704 	stmdahi	r3, {r2, r8, r9, sl, pc}
     8e8:	00018e02 	andeq	r8, r1, r2, lsl #28
     8ec:	00000020 	andeq	r0, r0, r0, lsr #32
     8f0:	00000000 	andeq	r0, r0, r0
     8f4:	420014f8 	andmi	r1, r0, #248, 8	; 0xf8000000
     8f8:	00000044 	andeq	r0, r0, r4, asr #32
     8fc:	847e1341 	ldrbthi	r1, [lr], #-833	; 0x341
     900:	0a018502 	beq	61d10 <ulAsmAPIPriorityMask+0x61c80>
     904:	c400134d 	strgt	r1, [r0], #-845	; 0x34d
     908:	410b41c5 	smlabtmi	fp, r5, r1, r4
     90c:	c5c40013 	strbgt	r0, [r4, #19]
     910:	00000024 	andeq	r0, r0, r4, lsr #32
     914:	00000000 	andeq	r0, r0, r0
     918:	4200153c 	andmi	r1, r0, #60, 10	; 0xf000000
     91c:	0000017c 	andeq	r0, r0, ip, ror r1
     920:	84771341 	ldrbthi	r1, [r7], #-833	; 0x341
     924:	86058506 	strhi	r8, [r5], -r6, lsl #10
     928:	88038704 	stmdahi	r3, {r2, r8, r9, sl, pc}
     92c:	43018e02 	movwmi	r8, #7682	; 0x1e02
     930:	13677413 	cmnne	r7, #318767104	; 0x13000000
     934:	7413417a 	ldrvc	r4, [r3], #-378	; 0x17a
     938:	00000024 	andeq	r0, r0, r4, lsr #32
     93c:	00000000 	andeq	r0, r0, r0
     940:	420016b8 	andmi	r1, r0, #184, 12	; 0xb800000
     944:	0000017c 	andeq	r0, r0, ip, ror r1
     948:	84781341 	ldrbthi	r1, [r8], #-833	; 0x341
     94c:	86048505 	strhi	r8, [r4], -r5, lsl #10
     950:	8e028703 	cdphi	7, 0, cr8, cr2, cr3, {0}
     954:	76134301 	ldrvc	r4, [r3], -r1, lsl #6
     958:	417b1367 	cmnmi	fp, r7, ror #6
     95c:	00007613 	andeq	r7, r0, r3, lsl r6
     960:	00000020 	andeq	r0, r0, r0, lsr #32
     964:	00000000 	andeq	r0, r0, r0
     968:	42001834 	andmi	r1, r0, #52, 16	; 0x340000
     96c:	000000b8 	strheq	r0, [r0], -r8
     970:	84781341 	ldrbthi	r1, [r8], #-833	; 0x341
     974:	86078508 	strhi	r8, [r7], -r8, lsl #10
     978:	88058706 	stmdahi	r5, {r1, r2, r8, r9, sl, pc}
     97c:	8a038904 	bhi	e2d94 <ulAsmAPIPriorityMask+0xe2d04>
     980:	00018e02 	andeq	r8, r1, r2, lsl #28
     984:	00000024 	andeq	r0, r0, r4, lsr #32
     988:	00000000 	andeq	r0, r0, r0
     98c:	420018ec 	andmi	r1, r0, #236, 16	; 0xec0000
     990:	0000009c 	muleq	r0, ip, r0
     994:	847c1341 	ldrbthi	r1, [ip], #-833	; 0x341
     998:	86038504 	strhi	r8, [r3], -r4, lsl #10
     99c:	45018e02 	strmi	r8, [r1, #-3586]	; 0xe02
     9a0:	88117a13 	ldmdahi	r1, {r0, r1, r4, r9, fp, ip, sp, lr}
     9a4:	135f0602 	cmpne	pc, #2097152	; 0x200000
     9a8:	0288067c 	addeq	r0, r8, #124, 12	; 0x7c00000
     9ac:	00000014 	andeq	r0, r0, r4, lsl r0
     9b0:	00000000 	andeq	r0, r0, r0
     9b4:	42001988 	andmi	r1, r0, #136, 18	; 0x220000
     9b8:	00000028 	andeq	r0, r0, r8, lsr #32
     9bc:	847e1341 	ldrbthi	r1, [lr], #-833	; 0x341
     9c0:	00018e02 	andeq	r8, r1, r2, lsl #28
     9c4:	00000014 	andeq	r0, r0, r4, lsl r0
     9c8:	00000000 	andeq	r0, r0, r0
     9cc:	420019b0 	andmi	r1, r0, #176, 18	; 0x2c0000
     9d0:	00000030 	andeq	r0, r0, r0, lsr r0
     9d4:	847e1341 	ldrbthi	r1, [lr], #-833	; 0x341
     9d8:	00018e02 	andeq	r8, r1, r2, lsl #28
     9dc:	00000014 	andeq	r0, r0, r4, lsl r0
     9e0:	00000000 	andeq	r0, r0, r0
     9e4:	420019e0 	andmi	r1, r0, #224, 18	; 0x380000
     9e8:	0000001c 	andeq	r0, r0, ip, lsl r0
     9ec:	847e1341 	ldrbthi	r1, [lr], #-833	; 0x341
     9f0:	00018e02 	andeq	r8, r1, r2, lsl #28
     9f4:	0000000c 	andeq	r0, r0, ip
     9f8:	0000012c 	andeq	r0, r0, ip, lsr #2
     9fc:	420019fc 	andmi	r1, r0, #252, 18	; 0x3f0000
     a00:	0000003c 	andeq	r0, r0, ip, lsr r0
     a04:	00000018 	andeq	r0, r0, r8, lsl r0
     a08:	00000000 	andeq	r0, r0, r0
     a0c:	42001a38 	andmi	r1, r0, #56, 20	; 0x38000
     a10:	00000028 	andeq	r0, r0, r8, lsr #32
     a14:	847e1341 	ldrbthi	r1, [lr], #-833	; 0x341
     a18:	48018e02 	stmdami	r1, {r1, r9, sl, fp, pc}
     a1c:	cec40013 	mcrgt	0, 6, r0, cr4, cr3, {0}
     a20:	0000000c 	andeq	r0, r0, ip
     a24:	00000064 	andeq	r0, r0, r4, rrx
     a28:	42001a60 	andmi	r1, r0, #96, 20	; 0x60000
     a2c:	00000008 	andeq	r0, r0, r8
     a30:	0000000c 	andeq	r0, r0, ip
     a34:	00000190 	muleq	r0, r0, r1
     a38:	42001a68 	andmi	r1, r0, #104, 20	; 0x68000
     a3c:	00000008 	andeq	r0, r0, r8
     a40:	0000000c 	andeq	r0, r0, ip
     a44:	00000064 	andeq	r0, r0, r4, rrx
     a48:	42001a70 	andmi	r1, r0, #112, 20	; 0x70000
     a4c:	00000008 	andeq	r0, r0, r8
     a50:	00000014 	andeq	r0, r0, r4, lsl r0
     a54:	00000000 	andeq	r0, r0, r0
     a58:	42001a78 	andmi	r1, r0, #120, 20	; 0x78000
     a5c:	00000028 	andeq	r0, r0, r8, lsr #32
     a60:	847e1341 	ldrbthi	r1, [lr], #-833	; 0x341
     a64:	00018e02 	andeq	r8, r1, r2, lsl #28
     a68:	00000014 	andeq	r0, r0, r4, lsl r0
     a6c:	00000000 	andeq	r0, r0, r0
     a70:	42001aa0 	andmi	r1, r0, #160, 20	; 0xa0000
     a74:	0000002c 	andeq	r0, r0, ip, lsr #32
     a78:	847e1341 	ldrbthi	r1, [lr], #-833	; 0x341
     a7c:	00018e02 	andeq	r8, r1, r2, lsl #28
     a80:	00000014 	andeq	r0, r0, r4, lsl r0
     a84:	0000012c 	andeq	r0, r0, ip, lsr #2
     a88:	42001acc 	andmi	r1, r0, #204, 20	; 0xcc000
     a8c:	00000034 	andeq	r0, r0, r4, lsr r0
     a90:	847e1343 	ldrbthi	r1, [lr], #-835	; 0x343
     a94:	00018e02 	andeq	r8, r1, r2, lsl #28
     a98:	0000000c 	andeq	r0, r0, ip
     a9c:	000001f4 	strdeq	r0, [r0], -r4
     aa0:	42001b00 	andmi	r1, r0, #0, 22
     aa4:	00000034 	andeq	r0, r0, r4, lsr r0
     aa8:	00000020 	andeq	r0, r0, r0, lsr #32
     aac:	00000000 	andeq	r0, r0, r0
     ab0:	42001b34 	andmi	r1, r0, #52, 22	; 0xd000
     ab4:	0000005c 	andeq	r0, r0, ip, asr r0
     ab8:	847c1341 	ldrbthi	r1, [ip], #-833	; 0x341
     abc:	86038504 	strhi	r8, [r3], -r4, lsl #10
     ac0:	55018e02 	strpl	r8, [r1, #-3586]	; 0xe02
     ac4:	c5c40013 	strbgt	r0, [r4, #19]
     ac8:	0000cec6 	andeq	ip, r0, r6, asr #29
     acc:	0000000c 	andeq	r0, r0, ip
     ad0:	00000000 	andeq	r0, r0, r0
     ad4:	42001b90 	andmi	r1, r0, #144, 22	; 0x24000
     ad8:	0000000c 	andeq	r0, r0, ip
     adc:	00000018 	andeq	r0, r0, r8, lsl r0
     ae0:	00000000 	andeq	r0, r0, r0
     ae4:	42001b9c 	andmi	r1, r0, #156, 22	; 0x27000
     ae8:	00000038 	andeq	r0, r0, r8, lsr r0
     aec:	847c1341 	ldrbthi	r1, [ip], #-833	; 0x341
     af0:	86038504 	strhi	r8, [r3], -r4, lsl #10
     af4:	00018e02 	andeq	r8, r1, r2, lsl #28
     af8:	00000014 	andeq	r0, r0, r4, lsl r0
     afc:	00000000 	andeq	r0, r0, r0
     b00:	42001bd4 	andmi	r1, r0, #212, 22	; 0x35000
     b04:	00000038 	andeq	r0, r0, r8, lsr r0
     b08:	847e1341 	ldrbthi	r1, [lr], #-833	; 0x341
     b0c:	00018e02 	andeq	r8, r1, r2, lsl #28
     b10:	00000014 	andeq	r0, r0, r4, lsl r0
     b14:	00000000 	andeq	r0, r0, r0
     b18:	42001c0c 	andmi	r1, r0, #12, 24	; 0xc00
     b1c:	00000020 	andeq	r0, r0, r0, lsr #32
     b20:	8e7e1341 	cdphi	3, 7, cr1, cr14, cr1, {2}
     b24:	00000001 	andeq	r0, r0, r1
     b28:	00000014 	andeq	r0, r0, r4, lsl r0
     b2c:	00000000 	andeq	r0, r0, r0
     b30:	42001c2c 	andmi	r1, r0, #44, 24	; 0x2c00
     b34:	00000020 	andeq	r0, r0, r0, lsr #32
     b38:	8e7e1341 	cdphi	3, 7, cr1, cr14, cr1, {2}
     b3c:	00000001 	andeq	r0, r0, r1
     b40:	00000014 	andeq	r0, r0, r4, lsl r0
     b44:	00000000 	andeq	r0, r0, r0
     b48:	42001c4c 	andmi	r1, r0, #76, 24	; 0x4c00
     b4c:	00000028 	andeq	r0, r0, r8, lsr #32
     b50:	847e1341 	ldrbthi	r1, [lr], #-833	; 0x341
     b54:	00018e02 	andeq	r8, r1, r2, lsl #28
     b58:	0000000c 	andeq	r0, r0, ip
     b5c:	000002bc 			; <UNDEFINED> instruction: 0x000002bc
     b60:	42000094 	andmi	r0, r0, #148	; 0x94
     b64:	00000050 	andeq	r0, r0, r0, asr r0
     b68:	0000001c 	andeq	r0, r0, ip, lsl r0
     b6c:	00000000 	andeq	r0, r0, r0
     b70:	42001c7c 	andmi	r1, r0, #124, 24	; 0x7c00
     b74:	00000114 	andeq	r0, r0, r4, lsl r1
     b78:	847a1341 	ldrbthi	r1, [sl], #-833	; 0x341
     b7c:	86058506 	strhi	r8, [r5], -r6, lsl #10
     b80:	88038704 	stmdahi	r3, {r2, r8, r9, sl, pc}
     b84:	00018e02 	andeq	r8, r1, r2, lsl #28
     b88:	00000038 	andeq	r0, r0, r8, lsr r0
     b8c:	00000000 	andeq	r0, r0, r0
     b90:	42001d90 	andmi	r1, r0, #144, 26	; 0x2400
     b94:	00000098 	muleq	r0, r8, r0
     b98:	84791341 	ldrbthi	r1, [r9], #-833	; 0x341
     b9c:	86068507 	strhi	r8, [r6], -r7, lsl #10
     ba0:	88048705 	stmdahi	r4, {r0, r2, r8, r9, sl, pc}
     ba4:	8e028903 	cdphi	9, 0, cr8, cr2, cr3, {0}
     ba8:	77134601 	ldrvc	r4, [r3, -r1, lsl #12]
     bac:	09028811 	stmdbeq	r2, {r0, r4, fp, pc}
     bb0:	58721341 	ldmdapl	r2!, {r0, r6, r8, r9, ip}^
     bb4:	410a7713 	tstmi	sl, r3, lsl r7
     bb8:	88067913 	stmdahi	r6, {r0, r1, r4, r8, fp, ip, sp, lr}
     bbc:	130b4102 	movwne	r4, #45314	; 0xb102
     bc0:	00000072 	andeq	r0, r0, r2, ror r0
     bc4:	00000018 	andeq	r0, r0, r8, lsl r0
     bc8:	00000000 	andeq	r0, r0, r0
     bcc:	42001e28 	andmi	r1, r0, #40, 28	; 0x280
     bd0:	000000e8 	andeq	r0, r0, r8, ror #1
     bd4:	847c1341 	ldrbthi	r1, [ip], #-833	; 0x341
     bd8:	86038504 	strhi	r8, [r3], -r4, lsl #10
     bdc:	00018e02 	andeq	r8, r1, r2, lsl #28
     be0:	0000001c 	andeq	r0, r0, ip, lsl r0
     be4:	00000000 	andeq	r0, r0, r0
     be8:	42001f10 	andmi	r1, r0, #16, 30	; 0x40
     bec:	00000140 	andeq	r0, r0, r0, asr #2
     bf0:	847a1341 	ldrbthi	r1, [sl], #-833	; 0x341
     bf4:	86058506 	strhi	r8, [r5], -r6, lsl #10
     bf8:	88038704 	stmdahi	r3, {r2, r8, r9, sl, pc}
     bfc:	00018e02 	andeq	r8, r1, r2, lsl #28
     c00:	00000020 	andeq	r0, r0, r0, lsr #32
     c04:	00000000 	andeq	r0, r0, r0
     c08:	42002050 	andmi	r2, r0, #80	; 0x50
     c0c:	00000124 	andeq	r0, r0, r4, lsr #2
     c10:	84781341 	ldrbthi	r1, [r8], #-833	; 0x341
     c14:	86078508 	strhi	r8, [r7], -r8, lsl #10
     c18:	88058706 	stmdahi	r5, {r1, r2, r8, r9, sl, pc}
     c1c:	8a038904 	bhi	e3034 <ulAsmAPIPriorityMask+0xe2fa4>
     c20:	00018e02 	andeq	r8, r1, r2, lsl #28
     c24:	00000034 	andeq	r0, r0, r4, lsr r0
     c28:	00000000 	andeq	r0, r0, r0
     c2c:	42002174 	andmi	r2, r0, #116, 2
     c30:	000000b4 	strheq	r0, [r0], -r4
     c34:	847a1341 	ldrbthi	r1, [sl], #-833	; 0x341
     c38:	86058506 	strhi	r8, [r5], -r6, lsl #10
     c3c:	88038704 	stmdahi	r3, {r2, r8, r9, sl, pc}
     c40:	0a018e02 	beq	64450 <ulAsmAPIPriorityMask+0x643c0>
     c44:	c4001359 	strgt	r1, [r0], #-857	; 0x359
     c48:	c8c7c6c5 	stmiagt	r7, {r0, r2, r6, r7, r9, sl, lr, pc}^
     c4c:	0a0b43ce 	beq	2d1b8c <ulAsmAPIPriorityMask+0x2d1afc>
     c50:	c4001349 	strgt	r1, [r0], #-841	; 0x349
     c54:	c8c7c6c5 	stmiagt	r7, {r0, r2, r6, r7, r9, sl, lr, pc}^
     c58:	000b41ce 	andeq	r4, fp, lr, asr #3
     c5c:	0000000c 	andeq	r0, r0, ip
     c60:	00000190 	muleq	r0, r0, r1
     c64:	42002228 	andmi	r2, r0, #40, 4	; 0x80000002
     c68:	00000014 	andeq	r0, r0, r4, lsl r0
     c6c:	0000001c 	andeq	r0, r0, ip, lsl r0
     c70:	00000000 	andeq	r0, r0, r0
     c74:	4200223c 	andmi	r2, r0, #60, 4	; 0xc0000003
     c78:	000000a0 	andeq	r0, r0, r0, lsr #1
     c7c:	847a1341 	ldrbthi	r1, [sl], #-833	; 0x341
     c80:	86058506 	strhi	r8, [r5], -r6, lsl #10
     c84:	88038704 	stmdahi	r3, {r2, r8, r9, sl, pc}
     c88:	00018e02 	andeq	r8, r1, r2, lsl #28
     c8c:	00000014 	andeq	r0, r0, r4, lsl r0
     c90:	00000000 	andeq	r0, r0, r0
     c94:	420022dc 	andmi	r2, r0, #220, 4	; 0xc000000d
     c98:	00000048 	andeq	r0, r0, r8, asr #32
     c9c:	847e1341 	ldrbthi	r1, [lr], #-833	; 0x341
     ca0:	00018e02 	andeq	r8, r1, r2, lsl #28
     ca4:	00000018 	andeq	r0, r0, r8, lsl r0
     ca8:	00000000 	andeq	r0, r0, r0
     cac:	42002324 	andmi	r2, r0, #36, 6	; 0x90000000
     cb0:	00000088 	andeq	r0, r0, r8, lsl #1
     cb4:	847c1341 	ldrbthi	r1, [ip], #-833	; 0x341
     cb8:	86038504 	strhi	r8, [r3], -r4, lsl #10
     cbc:	00018e02 	andeq	r8, r1, r2, lsl #28
     cc0:	00000014 	andeq	r0, r0, r4, lsl r0
     cc4:	00000000 	andeq	r0, r0, r0
     cc8:	420023ac 	andmi	r2, r0, #172, 6	; 0xb0000002
     ccc:	00000028 	andeq	r0, r0, r8, lsr #32
     cd0:	847e1341 	ldrbthi	r1, [lr], #-833	; 0x341
     cd4:	00018e02 	andeq	r8, r1, r2, lsl #28
     cd8:	00000014 	andeq	r0, r0, r4, lsl r0
     cdc:	00000000 	andeq	r0, r0, r0
     ce0:	420023d4 	andmi	r2, r0, #212, 6	; 0x50000003
     ce4:	0000002c 	andeq	r0, r0, ip, lsr #32
     ce8:	847e1341 	ldrbthi	r1, [lr], #-833	; 0x341
     cec:	00018e02 	andeq	r8, r1, r2, lsl #28
     cf0:	00000024 	andeq	r0, r0, r4, lsr #32
     cf4:	00000000 	andeq	r0, r0, r0
     cf8:	42002400 	andmi	r2, r0, #0, 8
     cfc:	000000fc 	strdeq	r0, [r0], -ip
     d00:	847a1341 	ldrbthi	r1, [sl], #-833	; 0x341
     d04:	86058506 	strhi	r8, [r5], -r6, lsl #10
     d08:	88038704 	stmdahi	r3, {r2, r8, r9, sl, pc}
     d0c:	7d018e02 	stcvc	14, cr8, [r1, #-8]
     d10:	c5c40013 	strbgt	r0, [r4, #19]
     d14:	cec8c7c6 	cdpgt	7, 12, cr12, cr8, cr6, {6}
     d18:	00000018 	andeq	r0, r0, r8, lsl r0
     d1c:	00000000 	andeq	r0, r0, r0
     d20:	420024fc 	andmi	r2, r0, #252, 8	; 0xfc000000
     d24:	000000e8 	andeq	r0, r0, r8, ror #1
     d28:	847c1341 	ldrbthi	r1, [ip], #-833	; 0x341
     d2c:	86038504 	strhi	r8, [r3], -r4, lsl #10
     d30:	00018e02 	andeq	r8, r1, r2, lsl #28
     d34:	00000020 	andeq	r0, r0, r0, lsr #32
     d38:	00000000 	andeq	r0, r0, r0
     d3c:	420025e4 	andmi	r2, r0, #228, 10	; 0x39000000
     d40:	000000f0 	strdeq	r0, [r0], -r0	; <UNPREDICTABLE>
     d44:	847c1341 	ldrbthi	r1, [ip], #-833	; 0x341
     d48:	86038504 	strhi	r8, [r3], -r4, lsl #10
     d4c:	7a018e02 	bvc	6455c <ulAsmAPIPriorityMask+0x644cc>
     d50:	c5c40013 	strbgt	r0, [r4, #19]
     d54:	0000cec6 	andeq	ip, r0, r6, asr #29
     d58:	0000002c 	andeq	r0, r0, ip, lsr #32
     d5c:	00000000 	andeq	r0, r0, r0
     d60:	420026d4 	andmi	r2, r0, #212, 12	; 0xd400000
     d64:	0000008c 	andeq	r0, r0, ip, lsl #1
     d68:	847c1341 	ldrbthi	r1, [ip], #-833	; 0x341
     d6c:	86038504 	strhi	r8, [r3], -r4, lsl #10
     d70:	46018e02 	strmi	r8, [r1], -r2, lsl #28
     d74:	0013570a 	andseq	r5, r3, sl, lsl #14
     d78:	cec6c5c4 	cdpgt	5, 12, cr12, cr6, cr4, {6}
     d7c:	13410b41 	movtne	r0, #6977	; 0x1b41
     d80:	c6c5c400 	strbgt	ip, [r5], r0, lsl #8
     d84:	000000ce 	andeq	r0, r0, lr, asr #1
     d88:	0000001c 	andeq	r0, r0, ip, lsl r0
     d8c:	00000000 	andeq	r0, r0, r0
     d90:	42002760 	andmi	r2, r0, #96, 14	; 0x1800000
     d94:	000000a0 	andeq	r0, r0, r0, lsr #1
     d98:	847a1341 	ldrbthi	r1, [sl], #-833	; 0x341
     d9c:	86058506 	strhi	r8, [r5], -r6, lsl #10
     da0:	88038704 	stmdahi	r3, {r2, r8, r9, sl, pc}
     da4:	00018e02 	andeq	r8, r1, r2, lsl #28
     da8:	00000010 	andeq	r0, r0, r0, lsl r0
     dac:	00000000 	andeq	r0, r0, r0
     db0:	42002800 	andmi	r2, r0, #0, 16
     db4:	00000068 	andeq	r0, r0, r8, rrx
     db8:	00000e07 	andeq	r0, r0, r7, lsl #28
     dbc:	00000014 	andeq	r0, r0, r4, lsl r0
     dc0:	00000000 	andeq	r0, r0, r0
     dc4:	42002868 	andmi	r2, r0, #104, 16	; 0x680000
     dc8:	0000007c 	andeq	r0, r0, ip, ror r0
     dcc:	847c1341 	ldrbthi	r1, [ip], #-833	; 0x341
     dd0:	00018e02 	andeq	r8, r1, r2, lsl #28
     dd4:	00000018 	andeq	r0, r0, r8, lsl r0
     dd8:	00000000 	andeq	r0, r0, r0
     ddc:	420028e4 	andmi	r2, r0, #228, 16	; 0xe40000
     de0:	0000001c 	andeq	r0, r0, ip, lsl r0
     de4:	847e1341 	ldrbthi	r1, [lr], #-833	; 0x341
     de8:	45018e02 	strmi	r8, [r1, #-3586]	; 0xe02
     dec:	cec40013 	mcrgt	0, 6, r0, cr4, cr3, {0}
     df0:	0000000c 	andeq	r0, r0, ip
     df4:	00000064 	andeq	r0, r0, r4, rrx
     df8:	42002900 	andmi	r2, r0, #0, 18
     dfc:	0000000c 	andeq	r0, r0, ip
     e00:	00000014 	andeq	r0, r0, r4, lsl r0
     e04:	00000000 	andeq	r0, r0, r0
     e08:	4200290c 	andmi	r2, r0, #12, 18	; 0x30000
     e0c:	00000014 	andeq	r0, r0, r4, lsl r0
     e10:	847e1341 	ldrbthi	r1, [lr], #-833	; 0x341
     e14:	00018e02 	andeq	r8, r1, r2, lsl #28
     e18:	0000000c 	andeq	r0, r0, ip
     e1c:	00000064 	andeq	r0, r0, r4, rrx
     e20:	42002920 	andmi	r2, r0, #32, 18	; 0x80000
     e24:	0000000c 	andeq	r0, r0, ip
     e28:	00000014 	andeq	r0, r0, r4, lsl r0
     e2c:	00000000 	andeq	r0, r0, r0
     e30:	4200292c 	andmi	r2, r0, #44, 18	; 0xb0000
     e34:	0000002c 	andeq	r0, r0, ip, lsr #32
     e38:	847e1343 	ldrbthi	r1, [lr], #-835	; 0x343
     e3c:	00018e02 	andeq	r8, r1, r2, lsl #28
     e40:	0000001c 	andeq	r0, r0, ip, lsl r0
     e44:	00000000 	andeq	r0, r0, r0
     e48:	42002958 	andmi	r2, r0, #88, 18	; 0x160000
     e4c:	000000a0 	andeq	r0, r0, r0, lsr #1
     e50:	847b1341 	ldrbthi	r1, [fp], #-833	; 0x341
     e54:	86048505 	strhi	r8, [r4], -r5, lsl #10
     e58:	8e028703 	cdphi	7, 0, cr8, cr2, cr3, {0}
     e5c:	00000001 	andeq	r0, r0, r1
     e60:	0000001c 	andeq	r0, r0, ip, lsl r0
     e64:	00000000 	andeq	r0, r0, r0
     e68:	420029f8 	andmi	r2, r0, #248, 18	; 0x3e0000
     e6c:	000000c0 	andeq	r0, r0, r0, asr #1
     e70:	847a1341 	ldrbthi	r1, [sl], #-833	; 0x341
     e74:	86058506 	strhi	r8, [r5], -r6, lsl #10
     e78:	88038704 	stmdahi	r3, {r2, r8, r9, sl, pc}
     e7c:	00018e02 	andeq	r8, r1, r2, lsl #28
     e80:	0000001c 	andeq	r0, r0, ip, lsl r0
     e84:	00000000 	andeq	r0, r0, r0
     e88:	42002ab8 	andmi	r2, r0, #184, 20	; 0xb8000
     e8c:	000000d4 	ldrdeq	r0, [r0], -r4
     e90:	847a1341 	ldrbthi	r1, [sl], #-833	; 0x341
     e94:	86058506 	strhi	r8, [r5], -r6, lsl #10
     e98:	88038704 	stmdahi	r3, {r2, r8, r9, sl, pc}
     e9c:	00018e02 	andeq	r8, r1, r2, lsl #28
     ea0:	00000020 	andeq	r0, r0, r0, lsr #32
     ea4:	00000000 	andeq	r0, r0, r0
     ea8:	42002b8c 	andmi	r2, r0, #140, 22	; 0x23000
     eac:	00000090 	muleq	r0, r0, r0
     eb0:	84781341 	ldrbthi	r1, [r8], #-833	; 0x341
     eb4:	86078508 	strhi	r8, [r7], -r8, lsl #10
     eb8:	88058706 	stmdahi	r5, {r1, r2, r8, r9, sl, pc}
     ebc:	8a038904 	bhi	e32d4 <ulAsmAPIPriorityMask+0xe3244>
     ec0:	00018e02 	andeq	r8, r1, r2, lsl #28
     ec4:	00000020 	andeq	r0, r0, r0, lsr #32
     ec8:	00000000 	andeq	r0, r0, r0
     ecc:	42002c1c 	andmi	r2, r0, #28, 24	; 0x1c00
     ed0:	000000d4 	ldrdeq	r0, [r0], -r4
     ed4:	84781341 	ldrbthi	r1, [r8], #-833	; 0x341
     ed8:	86078508 	strhi	r8, [r7], -r8, lsl #10
     edc:	88058706 	stmdahi	r5, {r1, r2, r8, r9, sl, pc}
     ee0:	8a038904 	bhi	e32f8 <ulAsmAPIPriorityMask+0xe3268>
     ee4:	00018e02 	andeq	r8, r1, r2, lsl #28
     ee8:	0000001c 	andeq	r0, r0, ip, lsl r0
     eec:	00000000 	andeq	r0, r0, r0
     ef0:	42002cf0 	andmi	r2, r0, #240, 24	; 0xf000
     ef4:	000000a8 	andeq	r0, r0, r8, lsr #1
     ef8:	847a1341 	ldrbthi	r1, [sl], #-833	; 0x341
     efc:	86058506 	strhi	r8, [r5], -r6, lsl #10
     f00:	88038704 	stmdahi	r3, {r2, r8, r9, sl, pc}
     f04:	00018e02 	andeq	r8, r1, r2, lsl #28
     f08:	00000020 	andeq	r0, r0, r0, lsr #32
     f0c:	00000000 	andeq	r0, r0, r0
     f10:	42002d98 	andmi	r2, r0, #152, 26	; 0x2600
     f14:	0000003c 	andeq	r0, r0, ip, lsr r0
     f18:	847c1341 	ldrbthi	r1, [ip], #-833	; 0x341
     f1c:	86038504 	strhi	r8, [r3], -r4, lsl #10
     f20:	4d018e02 	stcmi	14, cr8, [r1, #-8]
     f24:	c5c40013 	strbgt	r0, [r4, #19]
     f28:	0000cec6 	andeq	ip, r0, r6, asr #29
     f2c:	00000024 	andeq	r0, r0, r4, lsr #32
     f30:	00000000 	andeq	r0, r0, r0
     f34:	42002dd4 	andmi	r2, r0, #212, 26	; 0x3500
     f38:	00000060 	andeq	r0, r0, r0, rrx
     f3c:	847a1341 	ldrbthi	r1, [sl], #-833	; 0x341
     f40:	86058506 	strhi	r8, [r5], -r6, lsl #10
     f44:	88038704 	stmdahi	r3, {r2, r8, r9, sl, pc}
     f48:	56018e02 	strpl	r8, [r1], -r2, lsl #28
     f4c:	c5c40013 	strbgt	r0, [r4, #19]
     f50:	cec8c7c6 	cdpgt	7, 12, cr12, cr8, cr6, {6}
     f54:	00000020 	andeq	r0, r0, r0, lsr #32
     f58:	00000000 	andeq	r0, r0, r0
     f5c:	42002e34 	andmi	r2, r0, #52, 28	; 0x340
     f60:	00000048 	andeq	r0, r0, r8, asr #32
     f64:	847c1341 	ldrbthi	r1, [ip], #-833	; 0x341
     f68:	86038504 	strhi	r8, [r3], -r4, lsl #10
     f6c:	50018e02 	andpl	r8, r1, r2, lsl #28
     f70:	c5c40013 	strbgt	r0, [r4, #19]
     f74:	0000cec6 	andeq	ip, r0, r6, asr #29
     f78:	00000018 	andeq	r0, r0, r8, lsl r0
     f7c:	00000000 	andeq	r0, r0, r0
     f80:	42002e7c 	andmi	r2, r0, #124, 28	; 0x7c0
     f84:	00000090 	muleq	r0, r0, r0
     f88:	847c1341 	ldrbthi	r1, [ip], #-833	; 0x341
     f8c:	86038504 	strhi	r8, [r3], -r4, lsl #10
     f90:	00018e02 	andeq	r8, r1, r2, lsl #28
     f94:	00000018 	andeq	r0, r0, r8, lsl r0
     f98:	00000000 	andeq	r0, r0, r0
     f9c:	42002f0c 	andmi	r2, r0, #12, 30	; 0x30
     fa0:	00000090 	muleq	r0, r0, r0
     fa4:	847c1341 	ldrbthi	r1, [ip], #-833	; 0x341
     fa8:	86038504 	strhi	r8, [r3], -r4, lsl #10
     fac:	00018e02 	andeq	r8, r1, r2, lsl #28
     fb0:	00000018 	andeq	r0, r0, r8, lsl r0
     fb4:	00000000 	andeq	r0, r0, r0
     fb8:	42002f9c 	andmi	r2, r0, #156, 30	; 0x270
     fbc:	00000034 	andeq	r0, r0, r4, lsr r0
     fc0:	847e1341 	ldrbthi	r1, [lr], #-833	; 0x341
     fc4:	4b018e02 	blmi	647d4 <ulAsmAPIPriorityMask+0x64744>
     fc8:	cec40013 	mcrgt	0, 6, r0, cr4, cr3, {0}
     fcc:	0000000c 	andeq	r0, r0, ip
     fd0:	00000258 	andeq	r0, r0, r8, asr r2
     fd4:	42002fd0 	andmi	r2, r0, #208, 30	; 0x340
     fd8:	00000018 	andeq	r0, r0, r8, lsl r0
     fdc:	0000001c 	andeq	r0, r0, ip, lsl r0
     fe0:	00000000 	andeq	r0, r0, r0
     fe4:	42002fe8 	andmi	r2, r0, #232, 30	; 0x3a0
     fe8:	000000b4 	strheq	r0, [r0], -r4
     fec:	847a1341 	ldrbthi	r1, [sl], #-833	; 0x341
     ff0:	86058506 	strhi	r8, [r5], -r6, lsl #10
     ff4:	88038704 	stmdahi	r3, {r2, r8, r9, sl, pc}
     ff8:	00018e02 	andeq	r8, r1, r2, lsl #28
     ffc:	0000000c 	andeq	r0, r0, ip
    1000:	00000190 	muleq	r0, r0, r1
    1004:	4200309c 	andmi	r3, r0, #156	; 0x9c
    1008:	00000010 	andeq	r0, r0, r0, lsl r0
    100c:	0000000c 	andeq	r0, r0, ip
    1010:	00000064 	andeq	r0, r0, r4, rrx
    1014:	420030ac 	andmi	r3, r0, #172	; 0xac
    1018:	0000000c 	andeq	r0, r0, ip
    101c:	0000000c 	andeq	r0, r0, ip
    1020:	00000190 	muleq	r0, r0, r1
    1024:	420030b8 	andmi	r3, r0, #184	; 0xb8
    1028:	0000000c 	andeq	r0, r0, ip
    102c:	0000000c 	andeq	r0, r0, ip
    1030:	00000064 	andeq	r0, r0, r4, rrx
    1034:	420030c4 	andmi	r3, r0, #196	; 0xc4
    1038:	0000000c 	andeq	r0, r0, ip
    103c:	0000000c 	andeq	r0, r0, ip
    1040:	00000190 	muleq	r0, r0, r1
    1044:	420030d0 	andmi	r3, r0, #208	; 0xd0
    1048:	00000028 	andeq	r0, r0, r8, lsr #32
    104c:	00000018 	andeq	r0, r0, r8, lsl r0
    1050:	00000000 	andeq	r0, r0, r0
    1054:	420030f8 	andmi	r3, r0, #248	; 0xf8
    1058:	000000e8 	andeq	r0, r0, r8, ror #1
    105c:	847c1341 	ldrbthi	r1, [ip], #-833	; 0x341
    1060:	86038504 	strhi	r8, [r3], -r4, lsl #10
    1064:	00018e02 	andeq	r8, r1, r2, lsl #28
    1068:	00000018 	andeq	r0, r0, r8, lsl r0
    106c:	00000000 	andeq	r0, r0, r0
    1070:	420031e0 	andmi	r3, r0, #224, 2	; 0x38
    1074:	000000d4 	ldrdeq	r0, [r0], -r4
    1078:	847c1341 	ldrbthi	r1, [ip], #-833	; 0x341
    107c:	86038504 	strhi	r8, [r3], -r4, lsl #10
    1080:	00018e02 	andeq	r8, r1, r2, lsl #28
    1084:	00000020 	andeq	r0, r0, r0, lsr #32
    1088:	00000000 	andeq	r0, r0, r0
    108c:	420032b4 	andmi	r3, r0, #180, 4	; 0x4000000b
    1090:	000000e8 	andeq	r0, r0, r8, ror #1
    1094:	847c1341 	ldrbthi	r1, [ip], #-833	; 0x341
    1098:	86038504 	strhi	r8, [r3], -r4, lsl #10
    109c:	78018e02 	stmdavc	r1, {r1, r9, sl, fp, pc}
    10a0:	c5c40013 	strbgt	r0, [r4, #19]
    10a4:	0000cec6 	andeq	ip, r0, r6, asr #29
    10a8:	0000001c 	andeq	r0, r0, ip, lsl r0
    10ac:	00000000 	andeq	r0, r0, r0
    10b0:	4200339c 	andmi	r3, r0, #156, 6	; 0x70000002
    10b4:	000000fc 	strdeq	r0, [r0], -ip
    10b8:	84781341 	ldrbthi	r1, [r8], #-833	; 0x341
    10bc:	86058506 	strhi	r8, [r5], -r6, lsl #10
    10c0:	88038704 	stmdahi	r3, {r2, r8, r9, sl, pc}
    10c4:	00018e02 	andeq	r8, r1, r2, lsl #28
    10c8:	00000020 	andeq	r0, r0, r0, lsr #32
    10cc:	00000000 	andeq	r0, r0, r0
    10d0:	42003498 	andmi	r3, r0, #152, 8	; 0x98000000
    10d4:	000000e0 	andeq	r0, r0, r0, ror #1
    10d8:	84781341 	ldrbthi	r1, [r8], #-833	; 0x341
    10dc:	86068507 	strhi	r8, [r6], -r7, lsl #10
    10e0:	88048705 	stmdahi	r4, {r0, r2, r8, r9, sl, pc}
    10e4:	8e028903 	cdphi	9, 0, cr8, cr2, cr3, {0}
    10e8:	00000001 	andeq	r0, r0, r1
    10ec:	0000000c 	andeq	r0, r0, ip
    10f0:	00000258 	andeq	r0, r0, r8, asr r2
    10f4:	42003578 	andmi	r3, r0, #120, 10	; 0x1e000000
    10f8:	00000024 	andeq	r0, r0, r4, lsr #32
    10fc:	0000000c 	andeq	r0, r0, ip
    1100:	00000258 	andeq	r0, r0, r8, asr r2
    1104:	4200359c 	andmi	r3, r0, #156, 10	; 0x27000000
    1108:	00000028 	andeq	r0, r0, r8, lsr #32
    110c:	00000018 	andeq	r0, r0, r8, lsl r0
    1110:	00000000 	andeq	r0, r0, r0
    1114:	420035c4 	andmi	r3, r0, #196, 10	; 0x31000000
    1118:	000000c0 	andeq	r0, r0, r0, asr #1
    111c:	847c1341 	ldrbthi	r1, [ip], #-833	; 0x341
    1120:	86038504 	strhi	r8, [r3], -r4, lsl #10
    1124:	00018e02 	andeq	r8, r1, r2, lsl #28
    1128:	0000001c 	andeq	r0, r0, ip, lsl r0
    112c:	00000000 	andeq	r0, r0, r0
    1130:	42003684 	andmi	r3, r0, #132, 12	; 0x8400000
    1134:	000000b8 	strheq	r0, [r0], -r8
    1138:	847a1341 	ldrbthi	r1, [sl], #-833	; 0x341
    113c:	86058506 	strhi	r8, [r5], -r6, lsl #10
    1140:	88038704 	stmdahi	r3, {r2, r8, r9, sl, pc}
    1144:	00018e02 	andeq	r8, r1, r2, lsl #28
    1148:	0000001c 	andeq	r0, r0, ip, lsl r0
    114c:	00000000 	andeq	r0, r0, r0
    1150:	4200373c 	andmi	r3, r0, #60, 14	; 0xf00000
    1154:	000000fc 	strdeq	r0, [r0], -ip
    1158:	847a1341 	ldrbthi	r1, [sl], #-833	; 0x341
    115c:	86058506 	strhi	r8, [r5], -r6, lsl #10
    1160:	88038704 	stmdahi	r3, {r2, r8, r9, sl, pc}
    1164:	00018e02 	andeq	r8, r1, r2, lsl #28
    1168:	00000020 	andeq	r0, r0, r0, lsr #32
    116c:	00000000 	andeq	r0, r0, r0
    1170:	42003838 	andmi	r3, r0, #56, 16	; 0x380000
    1174:	00000134 	andeq	r0, r0, r4, lsr r1
    1178:	84781341 	ldrbthi	r1, [r8], #-833	; 0x341
    117c:	86078508 	strhi	r8, [r7], -r8, lsl #10
    1180:	88058706 	stmdahi	r5, {r1, r2, r8, r9, sl, pc}
    1184:	8a038904 	bhi	e359c <ulAsmAPIPriorityMask+0xe350c>
    1188:	00018e02 	andeq	r8, r1, r2, lsl #28
    118c:	00000028 	andeq	r0, r0, r8, lsr #32
    1190:	00000000 	andeq	r0, r0, r0
    1194:	4200396c 	andmi	r3, r0, #108, 18	; 0x1b0000
    1198:	000000d4 	ldrdeq	r0, [r0], -r4
    119c:	847a1341 	ldrbthi	r1, [sl], #-833	; 0x341
    11a0:	86058506 	strhi	r8, [r5], -r6, lsl #10
    11a4:	88038704 	stmdahi	r3, {r2, r8, r9, sl, pc}
    11a8:	0a018e02 	beq	649b8 <ulAsmAPIPriorityMask+0x64928>
    11ac:	c4001352 	strgt	r1, [r0], #-850	; 0x352
    11b0:	c8c7c6c5 	stmiagt	r7, {r0, r2, r6, r7, r9, sl, lr, pc}^
    11b4:	000b41ce 	andeq	r4, fp, lr, asr #3
    11b8:	00000014 	andeq	r0, r0, r4, lsl r0
    11bc:	00000000 	andeq	r0, r0, r0
    11c0:	42003a40 	andmi	r3, r0, #64, 20	; 0x40000
    11c4:	0000003c 	andeq	r0, r0, ip, lsr r0
    11c8:	847e1343 	ldrbthi	r1, [lr], #-835	; 0x343
    11cc:	00018e02 	andeq	r8, r1, r2, lsl #28
    11d0:	00000024 	andeq	r0, r0, r4, lsr #32
    11d4:	00000000 	andeq	r0, r0, r0
    11d8:	42003a7c 	andmi	r3, r0, #124, 20	; 0x7c000
    11dc:	000000d4 	ldrdeq	r0, [r0], -r4
    11e0:	84761341 	ldrbthi	r1, [r6], #-833	; 0x341
    11e4:	8609850a 	strhi	r8, [r9], -sl, lsl #10
    11e8:	88078708 	stmdahi	r7, {r3, r8, r9, sl, pc}
    11ec:	8a058906 	bhi	16360c <ulAsmAPIPriorityMask+0x16357c>
    11f0:	8e038b04 	vmlahi.f64	d8, d3, d4
    11f4:	00000001 	andeq	r0, r0, r1
    11f8:	0000000c 	andeq	r0, r0, ip
    11fc:	00000000 	andeq	r0, r0, r0
    1200:	42003b50 	andmi	r3, r0, #80, 22	; 0x14000
    1204:	0000002c 	andeq	r0, r0, ip, lsr #32
    1208:	00000018 	andeq	r0, r0, r8, lsl r0
    120c:	00000000 	andeq	r0, r0, r0
    1210:	42003b7c 	andmi	r3, r0, #124, 22	; 0x1f000
    1214:	0000001c 	andeq	r0, r0, ip, lsl r0
    1218:	847e1341 	ldrbthi	r1, [lr], #-833	; 0x341
    121c:	45018e02 	strmi	r8, [r1, #-3586]	; 0xe02
    1220:	cec40013 	mcrgt	0, 6, r0, cr4, cr3, {0}
    1224:	00000018 	andeq	r0, r0, r8, lsl r0
    1228:	00000000 	andeq	r0, r0, r0
    122c:	42003b98 	andmi	r3, r0, #152, 22	; 0x26000
    1230:	00000048 	andeq	r0, r0, r8, asr #32
    1234:	847c1341 	ldrbthi	r1, [ip], #-833	; 0x341
    1238:	86038504 	strhi	r8, [r3], -r4, lsl #10
    123c:	00018e02 	andeq	r8, r1, r2, lsl #28
    1240:	00000014 	andeq	r0, r0, r4, lsl r0
    1244:	00000000 	andeq	r0, r0, r0
    1248:	42003be0 	andmi	r3, r0, #224, 22	; 0x38000
    124c:	00000034 	andeq	r0, r0, r4, lsr r0
    1250:	847e1341 	ldrbthi	r1, [lr], #-833	; 0x341
    1254:	00018e02 	andeq	r8, r1, r2, lsl #28
    1258:	00000018 	andeq	r0, r0, r8, lsl r0
    125c:	00000000 	andeq	r0, r0, r0
    1260:	42003c20 	andmi	r3, r0, #32, 24	; 0x2000
    1264:	00000064 	andeq	r0, r0, r4, rrx
    1268:	847c1341 	ldrbthi	r1, [ip], #-833	; 0x341
    126c:	86038504 	strhi	r8, [r3], -r4, lsl #10
    1270:	00018e02 	andeq	r8, r1, r2, lsl #28
    1274:	00000028 	andeq	r0, r0, r8, lsr #32
    1278:	00000000 	andeq	r0, r0, r0
    127c:	42003c84 	andmi	r3, r0, #132, 24	; 0x8400
    1280:	0000008c 	andeq	r0, r0, ip, lsl #1
    1284:	84741341 	ldrbthi	r1, [r4], #-833	; 0x341
    1288:	86078508 	strhi	r8, [r7], -r8, lsl #10
    128c:	88058706 	stmdahi	r5, {r1, r2, r8, r9, sl, pc}
    1290:	8a038904 	bhi	e36a8 <ulAsmAPIPriorityMask+0xe3618>
    1294:	5b018e02 	blpl	64aa4 <ulAsmAPIPriorityMask+0x64a14>
    1298:	13427813 	movtne	r7, #10259	; 0x2813
    129c:	00000074 	andeq	r0, r0, r4, ror r0
    12a0:	00000020 	andeq	r0, r0, r0, lsr #32
    12a4:	00000000 	andeq	r0, r0, r0
    12a8:	42003d10 	andmi	r3, r0, #16, 26	; 0x400
    12ac:	0000015c 	andeq	r0, r0, ip, asr r1
    12b0:	847c1341 	ldrbthi	r1, [ip], #-833	; 0x341
    12b4:	86038504 	strhi	r8, [r3], -r4, lsl #10
    12b8:	42018e02 	andmi	r8, r1, #2, 28
    12bc:	53027613 	movwpl	r7, #9747	; 0x2613
    12c0:	00007c13 	andeq	r7, r0, r3, lsl ip
    12c4:	00000010 	andeq	r0, r0, r0, lsl r0
    12c8:	00000000 	andeq	r0, r0, r0
    12cc:	42003e6c 	andmi	r3, r0, #108, 28	; 0x6c0
    12d0:	00000044 	andeq	r0, r0, r4, asr #32
    12d4:	00000e07 	andeq	r0, r0, r7, lsl #28
    12d8:	00000018 	andeq	r0, r0, r8, lsl r0
    12dc:	00000000 	andeq	r0, r0, r0
    12e0:	42003eb0 	andmi	r3, r0, #176, 28	; 0xb00
    12e4:	00000060 	andeq	r0, r0, r0, rrx
    12e8:	847e1341 	ldrbthi	r1, [lr], #-833	; 0x341
    12ec:	56018e02 	strpl	r8, [r1], -r2, lsl #28
    12f0:	cec40013 	mcrgt	0, 6, r0, cr4, cr3, {0}
    12f4:	00000014 	andeq	r0, r0, r4, lsl r0
    12f8:	00000000 	andeq	r0, r0, r0
    12fc:	42003f10 	andmi	r3, r0, #16, 30	; 0x40
    1300:	00000058 	andeq	r0, r0, r8, asr r0
    1304:	847c1341 	ldrbthi	r1, [ip], #-833	; 0x341
    1308:	00018e02 	andeq	r8, r1, r2, lsl #28
    130c:	00000028 	andeq	r0, r0, r8, lsr #32
    1310:	00000000 	andeq	r0, r0, r0
    1314:	42003f68 	andmi	r3, r0, #104, 30	; 0x1a0
    1318:	00000064 	andeq	r0, r0, r4, rrx
    131c:	847a1341 	ldrbthi	r1, [sl], #-833	; 0x341
    1320:	86058506 	strhi	r8, [r5], -r6, lsl #10
    1324:	88038704 	stmdahi	r3, {r2, r8, r9, sl, pc}
    1328:	46018e02 	strmi	r8, [r1], -r2, lsl #28
    132c:	88117813 	ldmdahi	r1, {r0, r1, r4, fp, ip, sp, lr}
    1330:	13500802 	cmpne	r0, #131072	; 0x20000
    1334:	0288067a 	addeq	r0, r8, #127926272	; 0x7a00000
    1338:	00000014 	andeq	r0, r0, r4, lsl r0
    133c:	00000000 	andeq	r0, r0, r0
    1340:	42003fcc 	andmi	r3, r0, #204, 30	; 0x330
    1344:	00000024 	andeq	r0, r0, r4, lsr #32
    1348:	847e1341 	ldrbthi	r1, [lr], #-833	; 0x341
    134c:	00018e02 	andeq	r8, r1, r2, lsl #28
    1350:	00000014 	andeq	r0, r0, r4, lsl r0
    1354:	00000000 	andeq	r0, r0, r0
    1358:	42003ff0 	andmi	r3, r0, #240, 30	; 0x3c0
    135c:	0000001c 	andeq	r0, r0, ip, lsl r0
    1360:	847e1341 	ldrbthi	r1, [lr], #-833	; 0x341
    1364:	00018e02 	andeq	r8, r1, r2, lsl #28
    1368:	00000014 	andeq	r0, r0, r4, lsl r0
    136c:	00000000 	andeq	r0, r0, r0
    1370:	4200400c 	andmi	r4, r0, #12
    1374:	0000001c 	andeq	r0, r0, ip, lsl r0
    1378:	847e1341 	ldrbthi	r1, [lr], #-833	; 0x341
    137c:	00018e02 	andeq	r8, r1, r2, lsl #28
    1380:	00000014 	andeq	r0, r0, r4, lsl r0
    1384:	00000000 	andeq	r0, r0, r0
    1388:	42004028 	andmi	r4, r0, #40	; 0x28
    138c:	0000001c 	andeq	r0, r0, ip, lsl r0
    1390:	847e1341 	ldrbthi	r1, [lr], #-833	; 0x341
    1394:	00018e02 	andeq	r8, r1, r2, lsl #28
    1398:	00000014 	andeq	r0, r0, r4, lsl r0
    139c:	00000000 	andeq	r0, r0, r0
    13a0:	42004044 	andmi	r4, r0, #68	; 0x44
    13a4:	00000034 	andeq	r0, r0, r4, lsr r0
    13a8:	847e1341 	ldrbthi	r1, [lr], #-833	; 0x341
    13ac:	00018e02 	andeq	r8, r1, r2, lsl #28
    13b0:	00000014 	andeq	r0, r0, r4, lsl r0
    13b4:	00000000 	andeq	r0, r0, r0
    13b8:	42004078 	andmi	r4, r0, #120	; 0x78
    13bc:	00000028 	andeq	r0, r0, r8, lsr #32
    13c0:	847e1341 	ldrbthi	r1, [lr], #-833	; 0x341
    13c4:	00018e02 	andeq	r8, r1, r2, lsl #28
    13c8:	00000020 	andeq	r0, r0, r0, lsr #32
    13cc:	00000000 	andeq	r0, r0, r0
    13d0:	420040a0 	andmi	r4, r0, #160	; 0xa0
    13d4:	00000028 	andeq	r0, r0, r8, lsr #32
    13d8:	847c1341 	ldrbthi	r1, [ip], #-833	; 0x341
    13dc:	86038504 	strhi	r8, [r3], -r4, lsl #10
    13e0:	48018e02 	stmdami	r1, {r1, r9, sl, fp, pc}
    13e4:	c5c40013 	strbgt	r0, [r4, #19]
    13e8:	0000cec6 	andeq	ip, r0, r6, asr #29
    13ec:	0000001c 	andeq	r0, r0, ip, lsl r0
    13f0:	00000000 	andeq	r0, r0, r0
    13f4:	420040c8 	andmi	r4, r0, #200	; 0xc8
    13f8:	00000058 	andeq	r0, r0, r8, asr r0
    13fc:	847a1341 	ldrbthi	r1, [sl], #-833	; 0x341
    1400:	4c018e02 	stcmi	14, cr8, [r1], {2}
    1404:	13417e13 	movtne	r7, #7699	; 0x1e13
    1408:	0000007a 	andeq	r0, r0, sl, ror r0
    140c:	00000020 	andeq	r0, r0, r0, lsr #32
    1410:	00000000 	andeq	r0, r0, r0
    1414:	42004120 	andmi	r4, r0, #32, 2
    1418:	00000050 	andeq	r0, r0, r0, asr r0
    141c:	84761341 	ldrbthi	r1, [r6], #-833	; 0x341
    1420:	86058506 	strhi	r8, [r5], -r6, lsl #10
    1424:	88038704 	stmdahi	r3, {r2, r8, r9, sl, pc}
    1428:	52018e02 	andpl	r8, r1, #2, 28
    142c:	00007a13 	andeq	r7, r0, r3, lsl sl
    1430:	0000000c 	andeq	r0, r0, ip
    1434:	00000064 	andeq	r0, r0, r4, rrx
    1438:	42004170 	andmi	r4, r0, #112, 2
    143c:	00000008 	andeq	r0, r0, r8
    1440:	0000000c 	andeq	r0, r0, ip
    1444:	00000190 	muleq	r0, r0, r1
    1448:	42004178 	andmi	r4, r0, #120, 2
    144c:	00000008 	andeq	r0, r0, r8
    1450:	00000018 	andeq	r0, r0, r8, lsl r0
    1454:	00000000 	andeq	r0, r0, r0
    1458:	42004180 	andmi	r4, r0, #128, 2
    145c:	0000003c 	andeq	r0, r0, ip, lsr r0
    1460:	847c1341 	ldrbthi	r1, [ip], #-833	; 0x341
    1464:	86038504 	strhi	r8, [r3], -r4, lsl #10
    1468:	00018e02 	andeq	r8, r1, r2, lsl #28
    146c:	0000001c 	andeq	r0, r0, ip, lsl r0
    1470:	00000000 	andeq	r0, r0, r0
    1474:	420041bc 	andmi	r4, r0, #188, 2	; 0x2f
    1478:	000000fc 	strdeq	r0, [r0], -ip
    147c:	84781341 	ldrbthi	r1, [r8], #-833	; 0x341
    1480:	86058506 	strhi	r8, [r5], -r6, lsl #10
    1484:	88038704 	stmdahi	r3, {r2, r8, r9, sl, pc}
    1488:	00018e02 	andeq	r8, r1, r2, lsl #28
    148c:	0000001c 	andeq	r0, r0, ip, lsl r0
    1490:	00000000 	andeq	r0, r0, r0
    1494:	420042b8 	andmi	r4, r0, #184, 4	; 0x8000000b
    1498:	000000ac 	andeq	r0, r0, ip, lsr #1
    149c:	847a1341 	ldrbthi	r1, [sl], #-833	; 0x341
    14a0:	86048505 	strhi	r8, [r4], -r5, lsl #10
    14a4:	8e028703 	cdphi	7, 0, cr8, cr2, cr3, {0}
    14a8:	00000001 	andeq	r0, r0, r1
    14ac:	0000001c 	andeq	r0, r0, ip, lsl r0
    14b0:	00000000 	andeq	r0, r0, r0
    14b4:	42004368 	andmi	r4, r0, #104, 6	; 0xa0000001
    14b8:	00000088 	andeq	r0, r0, r8, lsl #1
    14bc:	847a1341 	ldrbthi	r1, [sl], #-833	; 0x341
    14c0:	86058506 	strhi	r8, [r5], -r6, lsl #10
    14c4:	88038704 	stmdahi	r3, {r2, r8, r9, sl, pc}
    14c8:	00018e02 	andeq	r8, r1, r2, lsl #28
    14cc:	0000000c 	andeq	r0, r0, ip
    14d0:	0000012c 	andeq	r0, r0, ip, lsr #2
    14d4:	420043f0 	andmi	r4, r0, #240, 6	; 0xc0000003
    14d8:	00000024 	andeq	r0, r0, r4, lsr #32
    14dc:	00000014 	andeq	r0, r0, r4, lsl r0
    14e0:	000001f4 	strdeq	r0, [r0], -r4
    14e4:	42004414 	andmi	r4, r0, #20, 8	; 0x14000000
    14e8:	00000024 	andeq	r0, r0, r4, lsr #32
    14ec:	8e7f1342 	cdphi	3, 7, cr1, cr15, cr2, {2}
    14f0:	00000001 	andeq	r0, r0, r1
    14f4:	0000000c 	andeq	r0, r0, ip
    14f8:	0000012c 	andeq	r0, r0, ip, lsr #2
    14fc:	42004438 	andmi	r4, r0, #56, 8	; 0x38000000
    1500:	0000000c 	andeq	r0, r0, ip
    1504:	0000000c 	andeq	r0, r0, ip
    1508:	00000064 	andeq	r0, r0, r4, rrx
    150c:	4200444c 	andmi	r4, r0, #76, 8	; 0x4c000000
    1510:	00000008 	andeq	r0, r0, r8
    1514:	0000000c 	andeq	r0, r0, ip
    1518:	00000190 	muleq	r0, r0, r1
    151c:	42004454 	andmi	r4, r0, #84, 8	; 0x54000000
    1520:	00000008 	andeq	r0, r0, r8
    1524:	0000001c 	andeq	r0, r0, ip, lsl r0
    1528:	00000000 	andeq	r0, r0, r0
    152c:	4200445c 	andmi	r4, r0, #92, 8	; 0x5c000000
    1530:	00000068 	andeq	r0, r0, r8, rrx
    1534:	847a1341 	ldrbthi	r1, [sl], #-833	; 0x341
    1538:	86058506 	strhi	r8, [r5], -r6, lsl #10
    153c:	88038704 	stmdahi	r3, {r2, r8, r9, sl, pc}
    1540:	00018e02 	andeq	r8, r1, r2, lsl #28
    1544:	00000018 	andeq	r0, r0, r8, lsl r0
    1548:	00000000 	andeq	r0, r0, r0
    154c:	420044c4 	andmi	r4, r0, #196, 8	; 0xc4000000
    1550:	00000068 	andeq	r0, r0, r8, rrx
    1554:	847e1344 	ldrbthi	r1, [lr], #-836	; 0x344
    1558:	54018e02 	strpl	r8, [r1], #-3586	; 0xe02
    155c:	cec40013 	mcrgt	0, 6, r0, cr4, cr3, {0}
    1560:	00000014 	andeq	r0, r0, r4, lsl r0
    1564:	00000000 	andeq	r0, r0, r0
    1568:	4200452c 	andmi	r4, r0, #44, 10	; 0xb000000
    156c:	00000018 	andeq	r0, r0, r8, lsl r0
    1570:	847e1341 	ldrbthi	r1, [lr], #-833	; 0x341
    1574:	00018e02 	andeq	r8, r1, r2, lsl #28
    1578:	0000000c 	andeq	r0, r0, ip
    157c:	00000190 	muleq	r0, r0, r1
    1580:	42004544 	andmi	r4, r0, #68, 10	; 0x11000000
    1584:	00000014 	andeq	r0, r0, r4, lsl r0
    1588:	0000000c 	andeq	r0, r0, ip
    158c:	00000258 	andeq	r0, r0, r8, asr r2
    1590:	42004558 	andmi	r4, r0, #88, 10	; 0x16000000
    1594:	00000038 	andeq	r0, r0, r8, lsr r0
    1598:	0000000c 	andeq	r0, r0, ip
    159c:	00000000 	andeq	r0, r0, r0
    15a0:	42004590 	andmi	r4, r0, #144, 10	; 0x24000000
    15a4:	00000008 	andeq	r0, r0, r8
    15a8:	0000000c 	andeq	r0, r0, ip
    15ac:	00000000 	andeq	r0, r0, r0
    15b0:	42004598 	andmi	r4, r0, #152, 10	; 0x26000000
    15b4:	00000008 	andeq	r0, r0, r8
    15b8:	0000000c 	andeq	r0, r0, ip
    15bc:	00000000 	andeq	r0, r0, r0
    15c0:	420045a0 	andmi	r4, r0, #160, 10	; 0x28000000
    15c4:	00000008 	andeq	r0, r0, r8
    15c8:	0000000c 	andeq	r0, r0, ip
    15cc:	00000000 	andeq	r0, r0, r0
    15d0:	420045a8 	andmi	r4, r0, #168, 10	; 0x2a000000
    15d4:	00000008 	andeq	r0, r0, r8
    15d8:	0000001c 	andeq	r0, r0, ip, lsl r0
    15dc:	00000350 	andeq	r0, r0, r0, asr r3
    15e0:	42004684 	andmi	r4, r0, #132, 12	; 0x8400000
    15e4:	00000014 	andeq	r0, r0, r4, lsl r0
    15e8:	427c1341 	rsbsmi	r1, ip, #67108865	; 0x4000001
    15ec:	06847a13 	pkhbteq	r7, r4, r3, lsl #20
    15f0:	1345058e 	movtne	r0, #21902	; 0x558e
    15f4:	0000c47b 	andeq	ip, r0, fp, ror r4
    15f8:	0000001c 	andeq	r0, r0, ip, lsl r0
    15fc:	00000350 	andeq	r0, r0, r0, asr r3
    1600:	4200469c 	andmi	r4, r0, #156, 12	; 0x9c00000
    1604:	00000022 	andeq	r0, r0, r2, lsr #32
    1608:	417c1341 	cmnmi	ip, r1, asr #6
    160c:	06847813 	pkhbteq	r7, r4, r3, lsl #16
    1610:	134d058e 	movtne	r0, #54670	; 0xd58e
    1614:	0000c47b 	andeq	ip, r0, fp, ror r4
    1618:	00000018 	andeq	r0, r0, r8, lsl r0
    161c:	00000350 	andeq	r0, r0, r0, asr r3
    1620:	420046c4 	andmi	r4, r0, #196, 12	; 0xc400000
    1624:	0000002e 	andeq	r0, r0, lr, lsr #32
    1628:	847c1341 	ldrbthi	r1, [ip], #-833	; 0x341
    162c:	86038504 	strhi	r8, [r3], -r4, lsl #10
    1630:	00018e02 	andeq	r8, r1, r2, lsl #28
    1634:	00000018 	andeq	r0, r0, r8, lsl r0
    1638:	00000350 	andeq	r0, r0, r0, asr r3
    163c:	420046f2 	andmi	r4, r0, #253755392	; 0xf200000
    1640:	00000024 	andeq	r0, r0, r4, lsr #32
    1644:	847c1341 	ldrbthi	r1, [ip], #-833	; 0x341
    1648:	86038504 	strhi	r8, [r3], -r4, lsl #10
    164c:	00018e02 	andeq	r8, r1, r2, lsl #28
    1650:	00000018 	andeq	r0, r0, r8, lsl r0
    1654:	00000350 	andeq	r0, r0, r0, asr r3
    1658:	42004716 	andmi	r4, r0, #5767168	; 0x580000
    165c:	00000052 	andeq	r0, r0, r2, asr r0
    1660:	847c1341 	ldrbthi	r1, [ip], #-833	; 0x341
    1664:	86038504 	strhi	r8, [r3], -r4, lsl #10
    1668:	00018e02 	andeq	r8, r1, r2, lsl #28
    166c:	00000024 	andeq	r0, r0, r4, lsr #32
    1670:	00000350 	andeq	r0, r0, r0, asr r3
    1674:	42004768 	andmi	r4, r0, #104, 14	; 0x1a00000
    1678:	00000062 	andeq	r0, r0, r2, rrx
    167c:	847a1342 	ldrbthi	r1, [sl], #-834	; 0x342
    1680:	86058506 	strhi	r8, [r5], -r6, lsl #10
    1684:	88038704 	stmdahi	r3, {r2, r8, r9, sl, pc}
    1688:	6d018e02 	stcvs	14, cr8, [r1, #-8]
    168c:	c5c40013 	strbgt	r0, [r4, #19]
    1690:	cec8c7c6 	cdpgt	7, 12, cr12, cr8, cr6, {6}
    1694:	00000020 	andeq	r0, r0, r0, lsr #32
    1698:	00000350 	andeq	r0, r0, r0, asr r3
    169c:	420047dc 	andmi	r4, r0, #220, 14	; 0x3700000
    16a0:	00000058 	andeq	r0, r0, r8, asr r0
    16a4:	847c1341 	ldrbthi	r1, [ip], #-833	; 0x341
    16a8:	86038504 	strhi	r8, [r3], -r4, lsl #10
    16ac:	69018e02 	stmdbvs	r1, {r1, r9, sl, fp, pc}
    16b0:	c5c40013 	strbgt	r0, [r4, #19]
    16b4:	0000cec6 	andeq	ip, r0, r6, asr #29
    16b8:	00000024 	andeq	r0, r0, r4, lsr #32
    16bc:	00000350 	andeq	r0, r0, r0, asr r3
    16c0:	42004838 	andmi	r4, r0, #56, 16	; 0x380000
    16c4:	00000136 	andeq	r0, r0, r6, lsr r1
    16c8:	84761342 	ldrbthi	r1, [r6], #-834	; 0x342
    16cc:	8609850a 	strhi	r8, [r9], -sl, lsl #10
    16d0:	88078708 	stmdahi	r7, {r3, r8, r9, sl, pc}
    16d4:	8a058906 	bhi	163af4 <ulAsmAPIPriorityMask+0x163a64>
    16d8:	8e038b04 	vmlahi.f64	d8, d3, d4
    16dc:	00000001 	andeq	r0, r0, r1
    16e0:	00000018 	andeq	r0, r0, r8, lsl r0
    16e4:	00000350 	andeq	r0, r0, r0, asr r3
    16e8:	42004974 	andmi	r4, r0, #116, 18	; 0x1d0000
    16ec:	00000046 	andeq	r0, r0, r6, asr #32
    16f0:	847d1344 	ldrbthi	r1, [sp], #-836	; 0x344
    16f4:	8e028503 	cfsh32hi	mvfx8, mvfx2, #3
    16f8:	00000001 	andeq	r0, r0, r1
    16fc:	0000000c 	andeq	r0, r0, ip
    1700:	00000350 	andeq	r0, r0, r0, asr r3
    1704:	420049ba 	andmi	r4, r0, #3047424	; 0x2e8000
    1708:	0000003a 	andeq	r0, r0, sl, lsr r0
    170c:	0000000c 	andeq	r0, r0, ip
    1710:	00000384 	andeq	r0, r0, r4, lsl #7
    1714:	420049f4 	andmi	r4, r0, #244, 18	; 0x3d0000
    1718:	00000010 	andeq	r0, r0, r0, lsl r0
    171c:	00000014 	andeq	r0, r0, r4, lsl r0
    1720:	000002bc 			; <UNDEFINED> instruction: 0x000002bc
    1724:	42004a04 	andmi	r4, r0, #4, 20	; 0x4000
    1728:	00000050 	andeq	r0, r0, r0, asr r0
    172c:	02781348 	rsbseq	r1, r8, #72, 6	; 0x20000001
    1730:	00001344 	andeq	r1, r0, r4, asr #6
    1734:	0000000c 	andeq	r0, r0, ip
    1738:	000002bc 			; <UNDEFINED> instruction: 0x000002bc
    173c:	42004a54 	andmi	r4, r0, #84, 20	; 0x54000
    1740:	000000f8 	strdeq	r0, [r0], -r8
    1744:	00000014 	andeq	r0, r0, r4, lsl r0
    1748:	00000384 	andeq	r0, r0, r4, lsl #7
    174c:	42004b4c 	andmi	r4, r0, #76, 22	; 0x13000
    1750:	0000017c 	andeq	r0, r0, ip, ror r1
    1754:	13017003 	movwne	r7, #4099	; 0x1003
    1758:	00018e7e 	andeq	r8, r1, lr, ror lr
    175c:	0000000c 	andeq	r0, r0, ip
    1760:	00000384 	andeq	r0, r0, r4, lsl #7
    1764:	420056dc 	andmi	r5, r0, #220, 12	; 0xdc00000
    1768:	00000024 	andeq	r0, r0, r4, lsr #32
    176c:	0000000c 	andeq	r0, r0, ip
    1770:	00000384 	andeq	r0, r0, r4, lsl #7
    1774:	420000ec 	andmi	r0, r0, #236	; 0xec
    1778:	00000008 	andeq	r0, r0, r8
    177c:	00000020 	andeq	r0, r0, r0, lsr #32
    1780:	00000350 	andeq	r0, r0, r0, asr r3
    1784:	42004cc8 	andmi	r4, r0, #200, 24	; 0xc800
    1788:	000000b8 	strheq	r0, [r0], -r8
    178c:	84781342 	ldrbthi	r1, [r8], #-834	; 0x342
    1790:	86078508 	strhi	r8, [r7], -r8, lsl #10
    1794:	88058706 	stmdahi	r5, {r1, r2, r8, r9, sl, pc}
    1798:	8a038904 	bhi	e3bb0 <ulAsmAPIPriorityMask+0xe3b20>
    179c:	00018e02 	andeq	r8, r1, r2, lsl #28
    17a0:	0000000c 	andeq	r0, r0, ip
    17a4:	00000350 	andeq	r0, r0, r0, asr r3
    17a8:	42004d80 	andmi	r4, r0, #128, 26	; 0x2000
    17ac:	0000000a 	andeq	r0, r0, sl
    17b0:	00000018 	andeq	r0, r0, r8, lsl r0
    17b4:	00000350 	andeq	r0, r0, r0, asr r3
    17b8:	42004d8a 	andmi	r4, r0, #8832	; 0x2280
    17bc:	00000020 	andeq	r0, r0, r0, lsr #32
    17c0:	8e7f1341 	cdphi	3, 7, cr1, cr15, cr1, {2}
    17c4:	70134101 	andsvc	r4, r3, r1, lsl #2
    17c8:	007f134d 	rsbseq	r1, pc, sp, asr #6
    17cc:	0000000c 	andeq	r0, r0, ip
    17d0:	00000350 	andeq	r0, r0, r0, asr r3
    17d4:	42004db0 	andmi	r4, r0, #176, 26	; 0x2c00
    17d8:	0000000a 	andeq	r0, r0, sl
    17dc:	00000014 	andeq	r0, r0, r4, lsl r0
    17e0:	00000350 	andeq	r0, r0, r0, asr r3
    17e4:	42004dba 	andmi	r4, r0, #11904	; 0x2e80
    17e8:	00000014 	andeq	r0, r0, r4, lsl r0
    17ec:	847e1341 	ldrbthi	r1, [lr], #-833	; 0x341
    17f0:	00018e02 	andeq	r8, r1, r2, lsl #28
    17f4:	0000000c 	andeq	r0, r0, ip
    17f8:	00000350 	andeq	r0, r0, r0, asr r3
    17fc:	42004dce 	andmi	r4, r0, #13184	; 0x3380
    1800:	00000010 	andeq	r0, r0, r0, lsl r0
    1804:	0000000c 	andeq	r0, r0, ip
    1808:	00000350 	andeq	r0, r0, r0, asr r3
    180c:	42004dde 	andmi	r4, r0, #14208	; 0x3780
    1810:	00000008 	andeq	r0, r0, r8
    1814:	00000018 	andeq	r0, r0, r8, lsl r0
    1818:	00000350 	andeq	r0, r0, r0, asr r3
    181c:	42004de8 	andmi	r4, r0, #232, 26	; 0x3a00
    1820:	00000020 	andeq	r0, r0, r0, lsr #32
    1824:	847c1342 	ldrbthi	r1, [ip], #-834	; 0x342
    1828:	86038504 	strhi	r8, [r3], -r4, lsl #10
    182c:	00018e02 	andeq	r8, r1, r2, lsl #28
    1830:	0000000c 	andeq	r0, r0, ip
    1834:	00000384 	andeq	r0, r0, r4, lsl #7
    1838:	42004e0c 	andmi	r4, r0, #12, 28	; 0xc0
    183c:	00000044 	andeq	r0, r0, r4, asr #32
    1840:	00000028 	andeq	r0, r0, r8, lsr #32
    1844:	000002bc 			; <UNDEFINED> instruction: 0x000002bc
    1848:	42004e50 	andmi	r4, r0, #80, 28	; 0x500
    184c:	0000007c 	andeq	r0, r0, ip, ror r0
    1850:	847a1344 	ldrbthi	r1, [sl], #-836	; 0x344
    1854:	86058506 	strhi	r8, [r5], -r6, lsl #10
    1858:	88038704 	stmdahi	r3, {r2, r8, r9, sl, pc}
    185c:	02018e02 	andeq	r8, r1, #2, 28
    1860:	c4001350 	strgt	r1, [r0], #-848	; 0x350
    1864:	c8c7c6c5 	stmiagt	r7, {r0, r2, r6, r7, r9, sl, lr, pc}^
    1868:	000000ce 	andeq	r0, r0, lr, asr #1
    186c:	0000000c 	andeq	r0, r0, ip
    1870:	00000384 	andeq	r0, r0, r4, lsl #7
    1874:	42004ecc 	andmi	r4, r0, #204, 28	; 0xcc0
    1878:	0000002c 	andeq	r0, r0, ip, lsr #32
    187c:	0000000c 	andeq	r0, r0, ip
    1880:	00000350 	andeq	r0, r0, r0, asr r3
    1884:	42004ef8 	andmi	r4, r0, #248, 28	; 0xf80
    1888:	00000008 	andeq	r0, r0, r8
    188c:	0000001c 	andeq	r0, r0, ip, lsl r0
    1890:	00000350 	andeq	r0, r0, r0, asr r3
    1894:	42004f00 	andmi	r4, r0, #0, 30
    1898:	000000d2 	ldrdeq	r0, [r0], -r2
    189c:	847e1341 	ldrbthi	r1, [lr], #-833	; 0x341
    18a0:	0a018e02 	beq	650b0 <ulAsmAPIPriorityMask+0x65020>
    18a4:	00136402 	andseq	r6, r3, r2, lsl #8
    18a8:	0b43cec4 	bleq	10f53c0 <ulAsmAPIPriorityMask+0x10f5330>
    18ac:	00000018 	andeq	r0, r0, r8, lsl r0
    18b0:	00000350 	andeq	r0, r0, r0, asr r3
    18b4:	42004fd2 	andmi	r4, r0, #840	; 0x348
    18b8:	00000038 	andeq	r0, r0, r8, lsr r0
    18bc:	847c1342 	ldrbthi	r1, [ip], #-834	; 0x342
    18c0:	86038504 	strhi	r8, [r3], -r4, lsl #10
    18c4:	00018e02 	andeq	r8, r1, r2, lsl #28
    18c8:	00000014 	andeq	r0, r0, r4, lsl r0
    18cc:	00000350 	andeq	r0, r0, r0, asr r3
    18d0:	42005038 	andmi	r5, r0, #56	; 0x38
    18d4:	00000014 	andeq	r0, r0, r4, lsl r0
    18d8:	8e7c1341 	cdphi	3, 7, cr1, cr12, cr1, {2}
    18dc:	00000001 	andeq	r0, r0, r1
    18e0:	00000014 	andeq	r0, r0, r4, lsl r0
    18e4:	00000350 	andeq	r0, r0, r0, asr r3
    18e8:	4200504c 	andmi	r5, r0, #76	; 0x4c
    18ec:	0000000c 	andeq	r0, r0, ip
    18f0:	8e7e1341 	cdphi	3, 7, cr1, cr14, cr1, {2}
    18f4:	00000001 	andeq	r0, r0, r1
    18f8:	00000018 	andeq	r0, r0, r8, lsl r0
    18fc:	00000350 	andeq	r0, r0, r0, asr r3
    1900:	42005058 	andmi	r5, r0, #88	; 0x58
    1904:	00000010 	andeq	r0, r0, r0, lsl r0
    1908:	847a1341 	ldrbthi	r1, [sl], #-833	; 0x341
    190c:	46018e02 	strmi	r8, [r1], -r2, lsl #28
    1910:	00007e13 	andeq	r7, r0, r3, lsl lr
    1914:	00000014 	andeq	r0, r0, r4, lsl r0
    1918:	00000350 	andeq	r0, r0, r0, asr r3
    191c:	42005068 	andmi	r5, r0, #104	; 0x68
    1920:	0000000e 	andeq	r0, r0, lr
    1924:	847a1341 	ldrbthi	r1, [sl], #-833	; 0x341
    1928:	00018e02 	andeq	r8, r1, r2, lsl #28
    192c:	00000014 	andeq	r0, r0, r4, lsl r0
    1930:	00000350 	andeq	r0, r0, r0, asr r3
    1934:	42005076 	andmi	r5, r0, #118	; 0x76
    1938:	0000000c 	andeq	r0, r0, ip
    193c:	8e7e1341 	cdphi	3, 7, cr1, cr14, cr1, {2}
    1940:	00000001 	andeq	r0, r0, r1
    1944:	00000014 	andeq	r0, r0, r4, lsl r0
    1948:	00000350 	andeq	r0, r0, r0, asr r3
    194c:	42005082 	andmi	r5, r0, #130	; 0x82
    1950:	0000000e 	andeq	r0, r0, lr
    1954:	847c1341 	ldrbthi	r1, [ip], #-833	; 0x341
    1958:	00018e02 	andeq	r8, r1, r2, lsl #28
    195c:	0000000c 	andeq	r0, r0, ip
    1960:	00000350 	andeq	r0, r0, r0, asr r3
    1964:	42005090 	andmi	r5, r0, #144	; 0x90
    1968:	00000002 	andeq	r0, r0, r2
    196c:	00000014 	andeq	r0, r0, r4, lsl r0
    1970:	00000350 	andeq	r0, r0, r0, asr r3
    1974:	42005092 	andmi	r5, r0, #146	; 0x92
    1978:	0000000c 	andeq	r0, r0, ip
    197c:	8e7e1341 	cdphi	3, 7, cr1, cr14, cr1, {2}
    1980:	00000001 	andeq	r0, r0, r1
    1984:	00000018 	andeq	r0, r0, r8, lsl r0
    1988:	00000350 	andeq	r0, r0, r0, asr r3
    198c:	4200509e 	andmi	r5, r0, #158	; 0x9e
    1990:	0000004e 	andeq	r0, r0, lr, asr #32
    1994:	847c1341 	ldrbthi	r1, [ip], #-833	; 0x341
    1998:	86038504 	strhi	r8, [r3], -r4, lsl #10
    199c:	00018e02 	andeq	r8, r1, r2, lsl #28
    19a0:	00000018 	andeq	r0, r0, r8, lsl r0
    19a4:	00000350 	andeq	r0, r0, r0, asr r3
    19a8:	420050ec 	andmi	r5, r0, #236	; 0xec
    19ac:	00000046 	andeq	r0, r0, r6, asr #32
    19b0:	847c1341 	ldrbthi	r1, [ip], #-833	; 0x341
    19b4:	86038504 	strhi	r8, [r3], -r4, lsl #10
    19b8:	00018e02 	andeq	r8, r1, r2, lsl #28
    19bc:	0000001c 	andeq	r0, r0, ip, lsl r0
    19c0:	00000350 	andeq	r0, r0, r0, asr r3
    19c4:	42005134 	andmi	r5, r0, #52, 2
    19c8:	0000009e 	muleq	r0, lr, r0
    19cc:	847a1342 	ldrbthi	r1, [sl], #-834	; 0x342
    19d0:	86058506 	strhi	r8, [r5], -r6, lsl #10
    19d4:	88038704 	stmdahi	r3, {r2, r8, r9, sl, pc}
    19d8:	00018e02 	andeq	r8, r1, r2, lsl #28
    19dc:	00000028 	andeq	r0, r0, r8, lsr #32
    19e0:	00000350 	andeq	r0, r0, r0, asr r3
    19e4:	420051d2 	andmi	r5, r0, #-2147483596	; 0x80000034
    19e8:	0000004a 	andeq	r0, r0, sl, asr #32
    19ec:	847a1342 	ldrbthi	r1, [sl], #-834	; 0x342
    19f0:	86058506 	strhi	r8, [r5], -r6, lsl #10
    19f4:	88038704 	stmdahi	r3, {r2, r8, r9, sl, pc}
    19f8:	0a018e02 	beq	65208 <ulAsmAPIPriorityMask+0x65178>
    19fc:	c4001360 	strgt	r1, [r0], #-864	; 0x360
    1a00:	c8c7c6c5 	stmiagt	r7, {r0, r2, r6, r7, r9, sl, lr, pc}^
    1a04:	000b41ce 	andeq	r4, fp, lr, asr #3
    1a08:	00000020 	andeq	r0, r0, r0, lsr #32
    1a0c:	00000350 	andeq	r0, r0, r0, asr r3
    1a10:	42005220 	andmi	r5, r0, #32, 4
    1a14:	0000004c 	andeq	r0, r0, ip, asr #32
    1a18:	84781342 	ldrbthi	r1, [r8], #-834	; 0x342
    1a1c:	86078508 	strhi	r8, [r7], -r8, lsl #10
    1a20:	88058706 	stmdahi	r5, {r1, r2, r8, r9, sl, pc}
    1a24:	8a038904 	bhi	e3e3c <ulAsmAPIPriorityMask+0xe3dac>
    1a28:	00018e02 	andeq	r8, r1, r2, lsl #28
    1a2c:	00000010 	andeq	r0, r0, r0, lsl r0
    1a30:	00000350 	andeq	r0, r0, r0, asr r3
    1a34:	4200526c 	andmi	r5, r0, #108, 4	; 0xc0000006
    1a38:	0000000c 	andeq	r0, r0, ip
    1a3c:	00000e07 	andeq	r0, r0, r7, lsl #28
    1a40:	00000018 	andeq	r0, r0, r8, lsl r0
    1a44:	00000350 	andeq	r0, r0, r0, asr r3
    1a48:	42005278 	andmi	r5, r0, #120, 4	; 0x80000007
    1a4c:	0000000e 	andeq	r0, r0, lr
    1a50:	847e1341 	ldrbthi	r1, [lr], #-833	; 0x341
    1a54:	44018e02 	strmi	r8, [r1], #-3586	; 0xe02
    1a58:	cec40013 	mcrgt	0, 6, r0, cr4, cr3, {0}
    1a5c:	0000000c 	andeq	r0, r0, ip
    1a60:	00000384 	andeq	r0, r0, r4, lsl #7
    1a64:	42005286 	andmi	r5, r0, #1610612744	; 0x60000008
    1a68:	00000002 	andeq	r0, r0, r2
    1a6c:	0000000c 	andeq	r0, r0, ip
    1a70:	00000384 	andeq	r0, r0, r4, lsl #7
    1a74:	42005288 	andmi	r5, r0, #136, 4	; 0x80000008
    1a78:	00000008 	andeq	r0, r0, r8
    1a7c:	0000000c 	andeq	r0, r0, ip
    1a80:	000003b8 			; <UNDEFINED> instruction: 0x000003b8
    1a84:	42005290 	andmi	r5, r0, #144, 4
    1a88:	00000002 	andeq	r0, r0, r2
    1a8c:	0000000c 	andeq	r0, r0, ip
    1a90:	00000350 	andeq	r0, r0, r0, asr r3
    1a94:	42005292 	andmi	r5, r0, #536870921	; 0x20000009
    1a98:	00000002 	andeq	r0, r0, r2
    1a9c:	0000000c 	andeq	r0, r0, ip
    1aa0:	00000350 	andeq	r0, r0, r0, asr r3
    1aa4:	42005294 	andmi	r5, r0, #148, 4	; 0x40000009
    1aa8:	00000002 	andeq	r0, r0, r2
    1aac:	0000000c 	andeq	r0, r0, ip
    1ab0:	00000350 	andeq	r0, r0, r0, asr r3
    1ab4:	42005296 	andmi	r5, r0, #1610612745	; 0x60000009
    1ab8:	00000002 	andeq	r0, r0, r2
    1abc:	00000018 	andeq	r0, r0, r8, lsl r0
    1ac0:	00000350 	andeq	r0, r0, r0, asr r3
    1ac4:	42005298 	andmi	r5, r0, #152, 4	; 0x80000009
    1ac8:	00000020 	andeq	r0, r0, r0, lsr #32
    1acc:	847c1341 	ldrbthi	r1, [ip], #-833	; 0x341
    1ad0:	8e028503 	cfsh32hi	mvfx8, mvfx2, #3
    1ad4:	00000001 	andeq	r0, r0, r1
    1ad8:	0000000c 	andeq	r0, r0, ip
    1adc:	00000350 	andeq	r0, r0, r0, asr r3
    1ae0:	420052b8 	andmi	r5, r0, #184, 4	; 0x8000000b
    1ae4:	00000006 	andeq	r0, r0, r6
    1ae8:	00000024 	andeq	r0, r0, r4, lsr #32
    1aec:	00000350 	andeq	r0, r0, r0, asr r3
    1af0:	420052be 	andmi	r5, r0, #-536870901	; 0xe000000b
    1af4:	0000005e 	andeq	r0, r0, lr, asr r0
    1af8:	847a1341 	ldrbthi	r1, [sl], #-833	; 0x341
    1afc:	86048505 	strhi	r8, [r4], -r5, lsl #10
    1b00:	8e028703 	cdphi	7, 0, cr8, cr2, cr3, {0}
    1b04:	136b0a01 	cmnne	fp, #4096	; 0x1000
    1b08:	c6c5c400 	strbgt	ip, [r5], r0, lsl #8
    1b0c:	0b42cec7 	bleq	10b5630 <ulAsmAPIPriorityMask+0x10b55a0>
    1b10:	00000018 	andeq	r0, r0, r8, lsl r0
    1b14:	00000350 	andeq	r0, r0, r0, asr r3
    1b18:	4200531c 	andmi	r5, r0, #28, 6	; 0x70000000
    1b1c:	0000005e 	andeq	r0, r0, lr, asr r0
    1b20:	847c1341 	ldrbthi	r1, [ip], #-833	; 0x341
    1b24:	86038504 	strhi	r8, [r3], -r4, lsl #10
    1b28:	00018e02 	andeq	r8, r1, r2, lsl #28
    1b2c:	0000001c 	andeq	r0, r0, ip, lsl r0
    1b30:	00000350 	andeq	r0, r0, r0, asr r3
    1b34:	4200537c 	andmi	r5, r0, #124, 6	; 0xf0000001
    1b38:	000000f4 	strdeq	r0, [r0], -r4
    1b3c:	847a1342 	ldrbthi	r1, [sl], #-834	; 0x342
    1b40:	86058506 	strhi	r8, [r5], -r6, lsl #10
    1b44:	88038704 	stmdahi	r3, {r2, r8, r9, sl, pc}
    1b48:	00018e02 	andeq	r8, r1, r2, lsl #28
    1b4c:	0000000c 	andeq	r0, r0, ip
    1b50:	00000350 	andeq	r0, r0, r0, asr r3
    1b54:	42005474 	andmi	r5, r0, #116, 8	; 0x74000000
    1b58:	00000014 	andeq	r0, r0, r4, lsl r0
    1b5c:	00000020 	andeq	r0, r0, r0, lsr #32
    1b60:	00000350 	andeq	r0, r0, r0, asr r3
    1b64:	42005488 	andmi	r5, r0, #136, 8	; 0x88000000
    1b68:	00000054 	andeq	r0, r0, r4, asr r0
    1b6c:	84781342 	ldrbthi	r1, [r8], #-834	; 0x342
    1b70:	86078508 	strhi	r8, [r7], -r8, lsl #10
    1b74:	88058706 	stmdahi	r5, {r1, r2, r8, r9, sl, pc}
    1b78:	8a038904 	bhi	e3f90 <ulAsmAPIPriorityMask+0xe3f00>
    1b7c:	00018e02 	andeq	r8, r1, r2, lsl #28
    1b80:	00000018 	andeq	r0, r0, r8, lsl r0
    1b84:	00000350 	andeq	r0, r0, r0, asr r3
    1b88:	420054dc 	andmi	r5, r0, #220, 8	; 0xdc000000
    1b8c:	00000046 	andeq	r0, r0, r6, asr #32
    1b90:	847c1341 	ldrbthi	r1, [ip], #-833	; 0x341
    1b94:	86038504 	strhi	r8, [r3], -r4, lsl #10
    1b98:	00018e02 	andeq	r8, r1, r2, lsl #28
    1b9c:	00000014 	andeq	r0, r0, r4, lsl r0
    1ba0:	00000350 	andeq	r0, r0, r0, asr r3
    1ba4:	42005522 	andmi	r5, r0, #142606336	; 0x8800000
    1ba8:	0000003c 	andeq	r0, r0, ip, lsr r0
    1bac:	847e1341 	ldrbthi	r1, [lr], #-833	; 0x341
    1bb0:	00018e02 	andeq	r8, r1, r2, lsl #28
    1bb4:	0000000c 	andeq	r0, r0, ip
    1bb8:	00000350 	andeq	r0, r0, r0, asr r3
    1bbc:	42005564 	andmi	r5, r0, #100, 10	; 0x19000000
    1bc0:	0000000a 	andeq	r0, r0, sl
    1bc4:	00000014 	andeq	r0, r0, r4, lsl r0
    1bc8:	00000350 	andeq	r0, r0, r0, asr r3
    1bcc:	42005570 	andmi	r5, r0, #112, 10	; 0x1c000000
    1bd0:	0000000e 	andeq	r0, r0, lr
    1bd4:	847e1341 	ldrbthi	r1, [lr], #-833	; 0x341
    1bd8:	00018e02 	andeq	r8, r1, r2, lsl #28
    1bdc:	0000000c 	andeq	r0, r0, ip
    1be0:	000003ec 	andeq	r0, r0, ip, ror #7
    1be4:	42005986 	andmi	r5, r0, #2195456	; 0x218000
    1be8:	0000000a 	andeq	r0, r0, sl
    1bec:	0000000c 	andeq	r0, r0, ip
    1bf0:	00000350 	andeq	r0, r0, r0, asr r3
    1bf4:	420055a4 	andmi	r5, r0, #164, 10	; 0x29000000
    1bf8:	00000008 	andeq	r0, r0, r8
    1bfc:	0000000c 	andeq	r0, r0, ip
    1c00:	00000350 	andeq	r0, r0, r0, asr r3
    1c04:	420055b0 	andmi	r5, r0, #176, 10	; 0x2c000000
    1c08:	0000000a 	andeq	r0, r0, sl
    1c0c:	0000000c 	andeq	r0, r0, ip
    1c10:	00000350 	andeq	r0, r0, r0, asr r3
    1c14:	420055ba 	andmi	r5, r0, #780140544	; 0x2e800000
    1c18:	00000004 	andeq	r0, r0, r4
    1c1c:	0000000c 	andeq	r0, r0, ip
    1c20:	00000350 	andeq	r0, r0, r0, asr r3
    1c24:	420055be 	andmi	r5, r0, #796917760	; 0x2f800000
    1c28:	00000032 	andeq	r0, r0, r2, lsr r0
    1c2c:	00000014 	andeq	r0, r0, r4, lsl r0
    1c30:	00000350 	andeq	r0, r0, r0, asr r3
    1c34:	420055f0 	andmi	r5, r0, #240, 10	; 0x3c000000
    1c38:	00000046 	andeq	r0, r0, r6, asr #32
    1c3c:	847e1341 	ldrbthi	r1, [lr], #-833	; 0x341
    1c40:	00018e02 	andeq	r8, r1, r2, lsl #28
    1c44:	00000020 	andeq	r0, r0, r0, lsr #32
    1c48:	00000350 	andeq	r0, r0, r0, asr r3
    1c4c:	42005636 	andmi	r5, r0, #56623104	; 0x3600000
    1c50:	00000032 	andeq	r0, r0, r2, lsr r0
    1c54:	847c1341 	ldrbthi	r1, [ip], #-833	; 0x341
    1c58:	86038504 	strhi	r8, [r3], -r4, lsl #10
    1c5c:	55018e02 	strpl	r8, [r1, #-3586]	; 0xe02
    1c60:	c5c40013 	strbgt	r0, [r4, #19]
    1c64:	0000cec6 	andeq	ip, r0, r6, asr #29
    1c68:	00000018 	andeq	r0, r0, r8, lsl r0
    1c6c:	00000350 	andeq	r0, r0, r0, asr r3
    1c70:	42005668 	andmi	r5, r0, #104, 12	; 0x6800000
    1c74:	0000000e 	andeq	r0, r0, lr
    1c78:	847e1341 	ldrbthi	r1, [lr], #-833	; 0x341
    1c7c:	44018e02 	strmi	r8, [r1], #-3586	; 0xe02
    1c80:	cec40013 	mcrgt	0, 6, r0, cr4, cr3, {0}
    1c84:	00000014 	andeq	r0, r0, r4, lsl r0
    1c88:	00000350 	andeq	r0, r0, r0, asr r3
    1c8c:	42005676 	andmi	r5, r0, #123731968	; 0x7600000
    1c90:	0000000e 	andeq	r0, r0, lr
    1c94:	8e7e1341 	cdphi	3, 7, cr1, cr14, cr1, {2}
    1c98:	00000001 	andeq	r0, r0, r1
    1c9c:	0000000c 	andeq	r0, r0, ip
    1ca0:	00000384 	andeq	r0, r0, r4, lsl #7
    1ca4:	42005684 	andmi	r5, r0, #132, 12	; 0x8400000
    1ca8:	00000008 	andeq	r0, r0, r8
    1cac:	00000014 	andeq	r0, r0, r4, lsl r0
    1cb0:	00000350 	andeq	r0, r0, r0, asr r3
    1cb4:	4200568c 	andmi	r5, r0, #140, 12	; 0x8c00000
    1cb8:	00000016 	andeq	r0, r0, r6, lsl r0
    1cbc:	847e1341 	ldrbthi	r1, [lr], #-833	; 0x341
    1cc0:	00018e02 	andeq	r8, r1, r2, lsl #28
    1cc4:	0000000c 	andeq	r0, r0, ip
    1cc8:	00000350 	andeq	r0, r0, r0, asr r3
    1ccc:	42005978 	andmi	r5, r0, #120, 18	; 0x1e0000
    1cd0:	0000000e 	andeq	r0, r0, lr

Disassembly of section .note:

00000000 <.note>:
   0:	00000004 	andeq	r0, r0, r4
   4:	00000034 	andeq	r0, r0, r4, lsr r0
   8:	40000000 	andmi	r0, r0, r0
   c:	004d5241 	subeq	r5, sp, r1, asr #4
	...
  34:	00000001 	andeq	r0, r0, r1
  38:	00000002 	andeq	r0, r0, r2
  3c:	00000003 	andeq	r0, r0, r3
  40:	00000004 	andeq	r0, r0, r4

Disassembly of section .comment:

00000000 <.comment>:
   0:	204d5241 	subcs	r5, sp, r1, asr #4
   4:	6b6e694c 	blvs	1b9a53c <ulAsmAPIPriorityMask+0x1b9a4ac>
   8:	202c7265 	eorcs	r7, ip, r5, ror #4
   c:	20312e34 	eorscs	r2, r1, r4, lsr lr
  10:	6975425b 	ldmdbvs	r5!, {r0, r1, r3, r4, r6, r9, lr}^
  14:	3820646c 	stmdacc	r0!, {r2, r3, r5, r6, sl, sp, lr}
  18:	0a5d3439 	beq	174d104 <ulAsmAPIPriorityMask+0x174d074>
  1c:	34393800 	ldrtcc	r3, [r9], #-2048	; 0x800
  20:	662d2d20 	strtvs	r2, [sp], -r0, lsr #26
  24:	533d7570 	teqpl	sp, #112, 10	; 0x1c000000
  28:	5674666f 	ldrbtpl	r6, [r4], -pc, ror #12
  2c:	2d205046 	stccs	0, cr5, [r0, #-280]!	; 0xfffffee8
  30:	74756f2d 	ldrbtvc	r6, [r5], #-3885	; 0xf2d
  34:	3d747570 	cfldr64cc	mvdx7, [r4, #-448]!	; 0xfffffe40
  38:	2f6a626f 	svccs	0x006a626f
  3c:	65657246 	strbvs	r7, [r5, #-582]!	; 0x246
  40:	736f7452 	cmnvc	pc, #1375731712	; 0x52000000
  44:	732d2d20 	teqvc	sp, #32, 26	; 0x800
  48:	74746163 	ldrbtvc	r6, [r4], #-355	; 0x163
  4c:	2e3d7265 	cdpcs	2, 3, cr7, cr13, cr5, {3}
  50:	6974552f 	ldmdbvs	r4!, {r0, r1, r2, r3, r5, r8, sl, ip, lr}^
  54:	7974696c 	ldmdbvc	r4!, {r2, r3, r5, r6, r8, fp, sp, lr}^
  58:	3741432f 	strbcc	r4, [r1, -pc, lsr #6]
  5c:	65657246 	strbvs	r7, [r5, #-582]!	; 0x246
  60:	534f5452 	movtpl	r5, #62546	; 0xf452
  64:	6163732e 	cmnvs	r3, lr, lsr #6
  68:	2d2d2074 	stccs	0, cr2, [sp, #-464]!	; 0xfffffe30
  6c:	72746e65 	rsbsvc	r6, r4, #1616	; 0x650
  70:	74533d79 	ldrbvc	r3, [r3], #-3449	; 0xd79
  74:	20747261 	rsbscs	r7, r4, r1, ror #4
  78:	696c2d2d 	stmdbvs	ip!, {r0, r2, r3, r5, r8, sl, fp, sp}^
  7c:	74617062 	strbtvc	r7, [r1], #-98	; 0x62
  80:	6f2f3d68 	svcvs	0x002f3d68
  84:	612f7470 	teqvs	pc, r0, ror r4	; <UNPREDICTABLE>
  88:	342f6d72 	strtcc	r6, [pc], #-3442	; 90 <ulAsmAPIPriorityMask>
  8c:	732f312e 	teqvc	pc, #-2147483637	; 0x8000000b
  90:	646e6174 	strbtvs	r6, [lr], #-372	; 0x174
  94:	2d647261 	sfmcs	f7, 2, [r4, #-388]!	; 0xfffffe7c
  98:	756e696c 	strbvc	r6, [lr, #-2412]!	; 0x96c
  9c:	65702d78 	ldrbvs	r2, [r0, #-3448]!	; 0xd78
  a0:	7569746e 	strbvc	r7, [r9, #-1134]!	; 0x46e
  a4:	65722d6d 	ldrbvs	r2, [r2, #-3437]!	; 0xd6d
  a8:	696c2f6c 	stmdbvs	ip!, {r2, r3, r5, r6, r8, r9, sl, fp, sp}^
  ac:	000a2f62 	andeq	r2, sl, r2, ror #30
  b0:	74706f2f 	ldrbtvc	r6, [r0], #-3887	; 0xf2f
  b4:	6d72612f 	ldfvse	f6, [r2, #-188]!	; 0xffffff44
  b8:	312e342f 	teqcc	lr, pc, lsr #8
  bc:	6174732f 	cmnvs	r4, pc, lsr #6
  c0:	7261646e 	rsbvc	r6, r1, #1845493760	; 0x6e000000
  c4:	696c2d64 	stmdbvs	ip!, {r2, r5, r6, r8, sl, fp, sp}^
  c8:	2d78756e 	cfldr64cs	mvdx7, [r8, #-440]!	; 0xfffffe48
  cc:	746e6570 	strbtvc	r6, [lr], #-1392	; 0x570
  d0:	2d6d7569 	cfstr64cs	mvdx7, [sp, #-420]!	; 0xfffffe5c
  d4:	2f6c6572 	svccs	0x006c6572
  d8:	2f62696c 	svccs	0x0062696c
  dc:	6d72612f 	ldfvse	f6, [r2, #-188]!	; 0xffffff44
  e0:	2f62696c 	svccs	0x0062696c
  e4:	2e325f63 	cdpcs	15, 3, cr5, cr2, cr3, {3}
  e8:	6f2f006c 	svcvs	0x002f006c
  ec:	612f7470 	teqvs	pc, r0, ror r4	; <UNPREDICTABLE>
  f0:	342f6d72 	strtcc	r6, [pc], #-3442	; f8 <ulAsmAPIPriorityMask+0x68>
  f4:	732f312e 	teqvc	pc, #-2147483637	; 0x8000000b
  f8:	646e6174 	strbtvs	r6, [lr], #-372	; 0x174
  fc:	2d647261 	sfmcs	f7, 2, [r4, #-388]!	; 0xfffffe7c
 100:	756e696c 	strbvc	r6, [lr, #-2412]!	; 0x96c
 104:	65702d78 	ldrbvs	r2, [r0, #-3448]!	; 0xd78
 108:	7569746e 	strbvc	r7, [r9, #-1134]!	; 0x46e
 10c:	65722d6d 	ldrbvs	r2, [r2, #-3437]!	; 0xd6d
 110:	696c2f6c 	stmdbvs	ip!, {r2, r3, r5, r6, r8, r9, sl, fp, sp}^
 114:	612f2f62 	teqvs	pc, r2, ror #30
 118:	696c6d72 	stmdbvs	ip!, {r1, r4, r5, r6, r8, sl, fp, sp, lr}^
 11c:	7a662f62 	bvc	198beac <ulAsmAPIPriorityMask+0x198be1c>
 120:	2e76325f 	mrccs	2, 3, r3, cr6, cr15, {2}
 124:	6f2f006c 	svcvs	0x002f006c
 128:	612f7470 	teqvs	pc, r0, ror r4	; <UNPREDICTABLE>
 12c:	342f6d72 	strtcc	r6, [pc], #-3442	; 134 <ulAsmAPIPriorityMask+0xa4>
 130:	732f312e 	teqvc	pc, #-2147483637	; 0x8000000b
 134:	646e6174 	strbtvs	r6, [lr], #-372	; 0x174
 138:	2d647261 	sfmcs	f7, 2, [r4, #-388]!	; 0xfffffe7c
 13c:	756e696c 	strbvc	r6, [lr, #-2412]!	; 0x96c
 140:	65702d78 	ldrbvs	r2, [r0, #-3448]!	; 0xd78
 144:	7569746e 	strbvc	r7, [r9, #-1134]!	; 0x46e
 148:	65722d6d 	ldrbvs	r2, [r2, #-3437]!	; 0xd6d
 14c:	696c2f6c 	stmdbvs	ip!, {r2, r3, r5, r6, r8, r9, sl, fp, sp}^
 150:	612f2f62 	teqvs	pc, r2, ror #30
 154:	696c6d72 	stmdbvs	ip!, {r1, r4, r5, r6, r8, sl, fp, sp, lr}^
 158:	5f682f62 	svcpl	0x00682f62
 15c:	006c2e32 	rsbeq	r2, ip, r2, lsr lr
 160:	74706f2f 	ldrbtvc	r6, [r0], #-3887	; 0xf2f
 164:	6d72612f 	ldfvse	f6, [r2, #-188]!	; 0xffffff44
 168:	312e342f 	teqcc	lr, pc, lsr #8
 16c:	6174732f 	cmnvs	r4, pc, lsr #6
 170:	7261646e 	rsbvc	r6, r1, #1845493760	; 0x6e000000
 174:	696c2d64 	stmdbvs	ip!, {r2, r5, r6, r8, sl, fp, sp}^
 178:	2d78756e 	cfldr64cs	mvdx7, [r8, #-440]!	; 0xfffffe48
 17c:	746e6570 	strbtvc	r6, [lr], #-1392	; 0x570
 180:	2d6d7569 	cfstr64cs	mvdx7, [sp, #-420]!	; 0xfffffe5c
 184:	2f6c6572 	svccs	0x006c6572
 188:	2f62696c 	svccs	0x0062696c
 18c:	6d72612f 	ldfvse	f6, [r2, #-188]!	; 0xffffff44
 190:	2f62696c 	svccs	0x0062696c
 194:	76325f6d 	ldrtvc	r5, [r2], -sp, ror #30
 198:	2f006c2e 	svccs	0x00006c2e
 19c:	2f74706f 	svccs	0x0074706f
 1a0:	2f6d7261 	svccs	0x006d7261
 1a4:	2f312e34 	svccs	0x00312e34
 1a8:	6e617473 	mcrvs	4, 3, r7, cr1, cr3, {3}
 1ac:	64726164 	ldrbtvs	r6, [r2], #-356	; 0x164
 1b0:	6e696c2d 	cdpvs	12, 6, cr6, cr9, cr13, {1}
 1b4:	702d7875 	eorvc	r7, sp, r5, ror r8
 1b8:	69746e65 	ldmdbvs	r4!, {r0, r2, r5, r6, r9, sl, fp, sp, lr}^
 1bc:	722d6d75 	eorvc	r6, sp, #7488	; 0x1d40
 1c0:	6c2f6c65 	stcvs	12, cr6, [pc], #-404	; 34 <BuildAttributes$$THM_ISAv4$ARM_ISAv7$X$E$P$J$Z$N$K$B$S$VFPv3$PE$PLD4$MPE$A:L22UL41UL21$X:L11$S22US41US21$IEEE1$IW$~IW$USESV6$~STKCKD$USESV7$~SHL$OTIME$ROPI$EBA8$UX$STANDARDLIB$THUMB2LIB$REQ8$PRES8$EABIv2+0x34>
 1c4:	2f2f6269 	svccs	0x002f6269
 1c8:	6c6d7261 	sfmvs	f7, 2, [sp], #-388	; 0xfffffe7c
 1cc:	762f6269 	strtvc	r6, [pc], -r9, ror #4
 1d0:	75737066 	ldrbvc	r7, [r3, #-102]!	; 0x66
 1d4:	726f7070 	rsbvc	r7, pc, #112	; 0x70
 1d8:	006c2e74 	rsbeq	r2, ip, r4, ror lr
 1dc:	75706e49 	ldrbvc	r6, [r0, #-3657]!	; 0xe49
 1e0:	6f432074 	svcvs	0x00432074
 1e4:	6e656d6d 	cdpvs	13, 6, cr6, cr5, cr13, {3}
 1e8:	003a7374 	eorseq	r7, sl, r4, ror r3
 1ec:	6f726300 	svcvs	0x00726300
 1f0:	6e697475 	mcrvs	4, 3, r7, cr9, cr5, {3}
 1f4:	006f2e65 	rsbeq	r2, pc, r5, ror #28
 1f8:	6e657665 	cdpvs	6, 6, cr7, cr5, cr5, {3}
 1fc:	72675f74 	rsbvc	r5, r7, #116, 30	; 0x1d0
 200:	7370756f 	cmnvc	r0, #465567744	; 0x1bc00000
 204:	68006f2e 	stmdavs	r0, {r1, r2, r3, r5, r8, r9, sl, fp, sp, lr}
 208:	5f706165 	svcpl	0x00706165
 20c:	006f2e32 	rsbeq	r2, pc, r2, lsr lr	; <UNPREDICTABLE>
 210:	7473696c 	ldrbtvc	r6, [r3], #-2412	; 0x96c
 214:	6d006f2e 	stcvs	15, cr6, [r0, #-184]	; 0xffffff48
 218:	2e6e6961 	cdpcs	9, 6, cr6, cr14, cr1, {3}
 21c:	6f70006f 	svcvs	0x0070006f
 220:	6f2e7472 	svcvs	0x002e7472
 224:	65757100 	ldrbvs	r7, [r5, #-256]!	; 0x100
 228:	6f2e6575 	svcvs	0x002e6575
 22c:	72747300 	rsbsvc	r7, r4, #0, 6
 230:	5f6d6165 	svcpl	0x006d6165
 234:	66667562 	strbtvs	r7, [r6], -r2, ror #10
 238:	6f2e7265 	svcvs	0x002e7265
 23c:	73617400 	cmnvc	r1, #0, 8
 240:	6f2e736b 	svcvs	0x002e736b
 244:	6d697400 	cfstrdvs	mvd7, [r9, #-0]
 248:	2e737265 	cdpcs	2, 7, cr7, cr3, cr5, {3}
 24c:	4100006f 	tstmi	r0, pc, rrx
 250:	43204d52 	teqmi	r0, #5248	; 0x1480
 254:	2b2b432f 	blcs	ad0f18 <ulAsmAPIPriorityMask+0xad0e88>
 258:	6d6f4320 	stclvs	3, cr4, [pc, #-128]!	; 1e0 <ulAsmAPIPriorityMask+0x150>
 25c:	656c6970 	strbvs	r6, [ip, #-2416]!	; 0x970
 260:	34202c72 	strtcc	r2, [r0], #-3186	; 0xc72
 264:	5b20312e 	blpl	80c724 <ulAsmAPIPriorityMask+0x80c694>
 268:	6c697542 	cfstr64vs	mvdx7, [r9], #-264	; 0xfffffef8
 26c:	39382064 	ldmdbcc	r8!, {r2, r5, r6, sp}
 270:	61005d34 	tstvs	r0, r4, lsr sp
 274:	63636d72 	cmnvs	r3, #7296	; 0x1c80
 278:	2d20382e 	stccs	8, cr3, [r0, #-184]!	; 0xffffff48
 27c:	2d202063 	stccs	0, cr2, [r0, #-396]!	; 0xfffffe74
 280:	7570632d 	ldrbvc	r6, [r0, #-813]!	; 0x32d
 284:	726f433d 	rsbvc	r4, pc, #-201326592	; 0xf4000000
 288:	2d786574 	cfldr64cs	mvdx6, [r8, #-464]!	; 0xfffffe30
 28c:	2d203941 	stccs	9, cr3, [r0, #-260]!	; 0xfffffefc
 290:	706f2f49 	rsbvc	r2, pc, r9, asr #30
 294:	72612f74 	rsbvc	r2, r1, #116, 30	; 0x1d0
 298:	2e342f6d 	cdpcs	15, 3, cr2, cr4, cr13, {3}
 29c:	74732f31 	ldrbtvc	r2, [r3], #-3889	; 0xf31
 2a0:	61646e61 	cmnvs	r4, r1, ror #28
 2a4:	6c2d6472 	cfstrsvs	mvf6, [sp], #-456	; 0xfffffe38
 2a8:	78756e69 	ldmdavc	r5!, {r0, r3, r5, r6, r9, sl, fp, sp, lr}^
 2ac:	6e65702d 	cdpvs	0, 6, cr7, cr5, cr13, {1}
 2b0:	6d756974 	ldclvs	9, cr6, [r5, #-464]!	; 0xfffffe30
 2b4:	6c65722d 	sfmvs	f7, 2, [r5], #-180	; 0xffffff4c
 2b8:	636e692f 	cmnvs	lr, #770048	; 0xbc000
 2bc:	6564756c 	strbvs	r7, [r4, #-1388]!	; 0x56c
 2c0:	696e752f 	stmdbvs	lr!, {r0, r1, r2, r3, r5, r8, sl, ip, sp, lr}^
 2c4:	2d202f78 	stccs	15, cr2, [r0, #-480]!	; 0xfffffe20
 2c8:	692f2e49 	stmdbvs	pc!, {r0, r3, r6, r9, sl, fp, sp}	; <UNPREDICTABLE>
 2cc:	756c636e 	strbvc	r6, [ip, #-878]!	; 0x36e
 2d0:	202f6564 	eorcs	r6, pc, r4, ror #10
 2d4:	2f2e492d 	svccs	0x002e492d
 2d8:	6c697455 	cfstrdvs	mvd7, [r9], #-340	; 0xfffffeac
 2dc:	20797469 	rsbscs	r7, r9, r9, ror #8
 2e0:	2f2e492d 	svccs	0x002e492d
 2e4:	74726f70 	ldrbtvc	r6, [r2], #-3952	; 0xf70
 2e8:	656c6261 	strbvs	r6, [ip, #-609]!	; 0x261
 2ec:	4456522f 	ldrbmi	r5, [r6], #-559	; 0x22f
 2f0:	52412f53 	subpl	r2, r1, #332	; 0x14c
 2f4:	41435f4d 	cmpmi	r3, sp, asr #30
 2f8:	2d202f39 	stccs	15, cr2, [r0, #-228]!	; 0xffffff1c
 2fc:	6f700057 	svcvs	0x00700057
 300:	53417472 	movtpl	r7, #5234	; 0x1472
 304:	006f2e4d 	rsbeq	r2, pc, sp, asr #28
 308:	72617473 	rsbvc	r7, r1, #1929379840	; 0x73000000
 30c:	2e707574 	mrccs	5, 3, r7, cr0, cr4, {3}
 310:	4100006f 	tstmi	r0, pc, rrx
 314:	41204d52 	teqmi	r0, r2, asr sp
 318:	6d657373 	stclvs	3, cr7, [r5, #-460]!	; 0xfffffe34
 31c:	72656c62 	rsbvc	r6, r5, #25088	; 0x6200
 320:	2e34202c 	cdpcs	0, 3, cr2, cr4, cr12, {1}
 324:	425b2031 	subsmi	r2, fp, #49	; 0x31
 328:	646c6975 	strbtvs	r6, [ip], #-2421	; 0x975
 32c:	34393820 	ldrtcc	r3, [r9], #-2080	; 0x820
 330:	3938005d 	ldmdbcc	r8!, {r0, r2, r3, r4, r6}
 334:	2d2d2034 	stccs	0, cr2, [sp, #-208]!	; 0xffffff30
 338:	3d757063 	ldclcc	0, cr7, [r5, #-396]!	; 0xfffffe74
 33c:	74726f43 	ldrbtvc	r6, [r2], #-3907	; 0xf43
 340:	412d7865 	teqmi	sp, r5, ror #16
 344:	75002039 	strvc	r2, [r0, #-57]	; 0x39
 348:	30747261 	rsbscc	r7, r4, r1, ror #4
 34c:	75006f2e 	strvc	r6, [r0, #-3886]	; 0xf2e
 350:	696c6974 	stmdbvs	ip!, {r2, r4, r5, r6, r8, fp, sp, lr}^
 354:	6f2e7974 	svcvs	0x002e7974
 358:	52410000 	subpl	r0, r1, #0
 35c:	2f43204d 	svccs	0x0043204d
 360:	202b2b43 	eorcs	r2, fp, r3, asr #22
 364:	706d6f43 	rsbvc	r6, sp, r3, asr #30
 368:	72656c69 	rsbvc	r6, r5, #26880	; 0x6900
 36c:	2e34202c 	cdpcs	0, 3, cr2, cr4, cr12, {1}
 370:	425b2031 	subsmi	r2, fp, #49	; 0x31
 374:	646c6975 	strbtvs	r6, [ip], #-2421	; 0x975
 378:	34393820 	ldrtcc	r3, [r9], #-2080	; 0x820
 37c:	7261005d 	rsbvc	r0, r1, #93	; 0x5d
 380:	2e63636d 	cdpcs	3, 6, cr6, cr3, cr13, {3}
 384:	632d2038 	teqvs	sp, #56	; 0x38
 388:	2d2d2020 	stccs	0, cr2, [sp, #-128]!	; 0xffffff80
 38c:	3d757063 	ldclcc	0, cr7, [r5, #-396]!	; 0xfffffe74
 390:	74726f43 	ldrbtvc	r6, [r2], #-3907	; 0xf43
 394:	412d7865 	teqmi	sp, r5, ror #16
 398:	492d2039 	pushmi	{r0, r3, r4, r5, sp}
 39c:	74706f2f 	ldrbtvc	r6, [r0], #-3887	; 0xf2f
 3a0:	6d72612f 	ldfvse	f6, [r2, #-188]!	; 0xffffff44
 3a4:	312e342f 	teqcc	lr, pc, lsr #8
 3a8:	6174732f 	cmnvs	r4, pc, lsr #6
 3ac:	7261646e 	rsbvc	r6, r1, #1845493760	; 0x6e000000
 3b0:	696c2d64 	stmdbvs	ip!, {r2, r5, r6, r8, sl, fp, sp}^
 3b4:	2d78756e 	cfldr64cs	mvdx7, [r8, #-440]!	; 0xfffffe48
 3b8:	746e6570 	strbtvc	r6, [lr], #-1392	; 0x570
 3bc:	2d6d7569 	cfstr64cs	mvdx7, [sp, #-420]!	; 0xfffffe5c
 3c0:	2f6c6572 	svccs	0x006c6572
 3c4:	6c636e69 	stclvs	14, cr6, [r3], #-420	; 0xfffffe5c
 3c8:	2f656475 	svccs	0x00656475
 3cc:	78696e75 	stmdavc	r9!, {r0, r2, r4, r5, r6, r9, sl, fp, sp, lr}^
 3d0:	492d202f 	pushmi	{r0, r1, r2, r3, r5, sp}
 3d4:	74552f2e 	ldrbvc	r2, [r5], #-3886	; 0xf2e
 3d8:	74696c69 	strbtvc	r6, [r9], #-3177	; 0xc69
 3dc:	2d202f79 	stccs	15, cr2, [r0, #-484]!	; 0xfffffe1c
 3e0:	702f2e49 	eorvc	r2, pc, r9, asr #28
 3e4:	6174726f 	cmnvs	r4, pc, ror #4
 3e8:	2f656c62 	svccs	0x00656c62
 3ec:	53445652 	movtpl	r5, #18002	; 0x4652
 3f0:	4d52412f 	ldfmie	f4, [r2, #-188]	; 0xffffff44
 3f4:	3941435f 	stmdbcc	r1, {r0, r1, r2, r3, r4, r6, r8, r9, lr}^
 3f8:	572d202f 	strpl	r2, [sp, -pc, lsr #32]!
 3fc:	67726100 	ldrbvs	r6, [r2, -r0, lsl #2]!
 400:	65765f76 	ldrbvs	r5, [r6, #-3958]!	; 0xf76
 404:	7265656e 	rsbvc	r6, r5, #461373440	; 0x1b800000
 408:	00006f2e 	andeq	r6, r0, lr, lsr #30
 40c:	204d5241 	subcs	r5, sp, r1, asr #4
 410:	6b6e694c 	blvs	1b9a948 <ulAsmAPIPriorityMask+0x1b9a8b8>
 414:	202c7265 	eorcs	r7, ip, r5, ror #4
 418:	20312e34 	eorscs	r2, r1, r4, lsr lr
 41c:	6975425b 	ldmdbvs	r5!, {r0, r1, r3, r4, r6, r9, lr}^
 420:	3820646c 	stmdacc	r0!, {r2, r3, r5, r6, sl, sp, lr}
 424:	0a5d3439 	beq	174d510 <ulAsmAPIPriorityMask+0x174d480>
 428:	6d726100 	ldfvse	f6, [r2, #-0]
 42c:	6b6e696c 	blvs	1b9a9e4 <ulAsmAPIPriorityMask+0x1b9a954>
 430:	702d2d20 	eorvc	r2, sp, r0, lsr #26
 434:	69747261 	ldmdbvs	r4!, {r0, r5, r6, r9, ip, sp, lr}^
 438:	2d206c61 	stccs	12, cr6, [r0, #-388]!	; 0xfffffe7c
 43c:	5f6f6e2d 	svcpl	0x006f6e2d
 440:	5f646461 	svcpl	0x00646461
 444:	6f6c6572 	svcvs	0x006c6572
 448:	745f7363 	ldrbvc	r7, [pc], #-867	; 450 <ulAsmAPIPriorityMask+0x3c0>
 44c:	6e755f6f 	cdpvs	15, 7, cr5, cr5, cr15, {3}
 450:	69666564 	stmdbvs	r6!, {r2, r5, r6, r8, sl, sp, lr}^
 454:	2064656e 	rsbcs	r6, r4, lr, ror #10
 458:	6f6e2d2d 	svcvs	0x006e2d2d
 45c:	6578655f 	ldrbvs	r6, [r8, #-1375]!	; 0x55f
 460:	61747363 	cmnvs	r4, r3, ror #6
 464:	2d206b63 	fstmdbxcs	r0!, {d6-d54}	;@ Deprecated
 468:	5f6f6e2d 	svcpl	0x006f6e2d
 46c:	656e6567 	strbvs	r6, [lr, #-1383]!	; 0x567
 470:	65746172 	ldrbvs	r6, [r4, #-370]!	; 0x172
 474:	70616d5f 	rsbvc	r6, r1, pc, asr sp
 478:	676e6970 			; <UNDEFINED> instruction: 0x676e6970
 47c:	6d79735f 	ldclvs	3, cr7, [r9, #-380]!	; 0xfffffe84
 480:	736c6f62 	cmnvc	ip, #392	; 0x188
 484:	642d2d20 	strtvs	r2, [sp], #-3360	; 0xd20
 488:	5f676169 	svcpl	0x00676169
 48c:	70707573 	rsbsvc	r7, r0, r3, ror r5
 490:	73736572 	cmnvc	r3, #478150656	; 0x1c800000
 494:	3436363d 	ldrtcc	r3, [r6], #-1597	; 0x63d
 498:	2d2d2032 	stccs	0, cr2, [sp, #-200]!	; 0xffffff38
 49c:	3d757063 	ldclcc	0, cr7, [r5, #-396]!	; 0xfffffe74
 4a0:	52412d37 	subpl	r2, r1, #3520	; 0xdc0
 4a4:	662d2d20 	strtvs	r2, [sp], -r0, lsr #26
 4a8:	4e3d7570 	mrcmi	5, 1, r7, cr13, cr0, {3}
 4ac:	20656e6f 	rsbcs	r6, r5, pc, ror #28
 4b0:	6f6e2d2d 	svcvs	0x006e2d2d
 4b4:	616e755f 	cmnvs	lr, pc, asr r5
 4b8:	6e67696c 	cdpvs	9, 6, cr6, cr7, cr12, {3}
 4bc:	615f6465 	cmpvs	pc, r5, ror #8
 4c0:	73656363 	cmnvc	r5, #-1946157055	; 0x8c000001
 4c4:	2d2d2073 	stccs	0, cr2, [sp, #-460]!	; 0xfffffe34
 4c8:	7074756f 	rsbsvc	r7, r4, pc, ror #10
 4cc:	613d7475 	teqvs	sp, r5, ror r4
 4d0:	5f766772 	svcpl	0x00766772
 4d4:	656e6576 	strbvs	r6, [lr, #-1398]!	; 0x576
 4d8:	6f2e7265 	svcvs	0x002e7265
 4dc:	762d2d20 	strtvc	r2, [sp], -r0, lsr #26
 4e0:	6f6d6566 	svcvs	0x006d6566
 4e4:	663d6564 	ldrtvs	r6, [sp], -r4, ror #10
 4e8:	6563726f 	strbvs	r7, [r3, #-623]!	; 0x26f
 4ec:	6e49000a 	cdpvs	0, 4, cr0, cr9, cr10, {0}
 4f0:	20747570 	rsbscs	r7, r4, r0, ror r5
 4f4:	6d6d6f43 	stclvs	15, cr6, [sp, #-268]!	; 0xfffffef4
 4f8:	73746e65 	cmnvc	r4, #1616	; 0x650
 4fc:	0000003a 	andeq	r0, r0, sl, lsr r0
 500:	79616d00 	stmdbvc	r1!, {r8, sl, fp, sp, lr}^
 504:	65746562 	ldrbvs	r6, [r4, #-1378]!	; 0x562
 508:	6c616d72 	stclvs	13, cr6, [r1], #-456	; 0xfffffe38
 50c:	31636f6c 	cmncc	r3, ip, ror #30
 510:	00006f2e 	andeq	r6, r0, lr, lsr #30
 514:	204d5241 	subcs	r5, sp, r1, asr #4
 518:	6b6e694c 	blvs	1b9aa50 <ulAsmAPIPriorityMask+0x1b9a9c0>
 51c:	202c7265 	eorcs	r7, ip, r5, ror #4
 520:	20312e34 	eorscs	r2, r1, r4, lsr lr
 524:	6975425b 	ldmdbvs	r5!, {r0, r1, r3, r4, r6, r9, lr}^
 528:	3820646c 	stmdacc	r0!, {r2, r3, r5, r6, sl, sp, lr}
 52c:	0a5d3439 	beq	174d618 <ulAsmAPIPriorityMask+0x174d588>
 530:	6d726100 	ldfvse	f6, [r2, #-0]
 534:	6b6e696c 	blvs	1b9aaec <ulAsmAPIPriorityMask+0x1b9aa5c>
 538:	702d2d20 	eorvc	r2, sp, r0, lsr #26
 53c:	69747261 	ldmdbvs	r4!, {r0, r5, r6, r9, ip, sp, lr}^
 540:	2d206c61 	stccs	12, cr6, [r0, #-388]!	; 0xfffffe7c
 544:	5f6f6e2d 	svcpl	0x006f6e2d
 548:	5f646461 	svcpl	0x00646461
 54c:	6f6c6572 	svcvs	0x006c6572
 550:	745f7363 	ldrbvc	r7, [pc], #-867	; 558 <ulAsmAPIPriorityMask+0x4c8>
 554:	6e755f6f 	cdpvs	15, 7, cr5, cr5, cr15, {3}
 558:	69666564 	stmdbvs	r6!, {r2, r5, r6, r8, sl, sp, lr}^
 55c:	2064656e 	rsbcs	r6, r4, lr, ror #10
 560:	6f6e2d2d 	svcvs	0x006e2d2d
 564:	6578655f 	ldrbvs	r6, [r8, #-1375]!	; 0x55f
 568:	61747363 	cmnvs	r4, r3, ror #6
 56c:	2d206b63 	fstmdbxcs	r0!, {d6-d54}	;@ Deprecated
 570:	5f6f6e2d 	svcpl	0x006f6e2d
 574:	656e6567 	strbvs	r6, [lr, #-1383]!	; 0x567
 578:	65746172 	ldrbvs	r6, [r4, #-370]!	; 0x172
 57c:	70616d5f 	rsbvc	r6, r1, pc, asr sp
 580:	676e6970 			; <UNDEFINED> instruction: 0x676e6970
 584:	6d79735f 	ldclvs	3, cr7, [r9, #-380]!	; 0xfffffe84
 588:	736c6f62 	cmnvc	ip, #392	; 0x188
 58c:	642d2d20 	strtvs	r2, [sp], #-3360	; 0xd20
 590:	5f676169 	svcpl	0x00676169
 594:	70707573 	rsbsvc	r7, r0, r3, ror r5
 598:	73736572 	cmnvc	r3, #478150656	; 0x1c800000
 59c:	3436363d 	ldrtcc	r3, [r6], #-1597	; 0x63d
 5a0:	2d2d2032 	stccs	0, cr2, [sp, #-200]!	; 0xffffff38
 5a4:	3d757063 	ldclcc	0, cr7, [r5, #-396]!	; 0xfffffe74
 5a8:	52412d37 	subpl	r2, r1, #3520	; 0xdc0
 5ac:	662d2d20 	strtvs	r2, [sp], -r0, lsr #26
 5b0:	4e3d7570 	mrcmi	5, 1, r7, cr13, cr0, {3}
 5b4:	20656e6f 	rsbcs	r6, r5, pc, ror #28
 5b8:	6f6e2d2d 	svcvs	0x006e2d2d
 5bc:	616e755f 	cmnvs	lr, pc, asr r5
 5c0:	6e67696c 	cdpvs	9, 6, cr6, cr7, cr12, {3}
 5c4:	615f6465 	cmpvs	pc, r5, ror #8
 5c8:	73656363 	cmnvc	r5, #-1946157055	; 0x8c000001
 5cc:	2d2d2073 	stccs	0, cr2, [sp, #-460]!	; 0xfffffe34
 5d0:	7074756f 	rsbsvc	r7, r4, pc, ror #10
 5d4:	6d3d7475 	cfldrsvs	mvf7, [sp, #-468]!	; 0xfffffe2c
 5d8:	65627961 	strbvs	r7, [r2, #-2401]!	; 0x961
 5dc:	6d726574 	cfldr64vs	mvdx6, [r2, #-464]!	; 0xfffffe30
 5e0:	6f6c6c61 	svcvs	0x006c6c61
 5e4:	6f2e3163 	svcvs	0x002e3163
 5e8:	762d2d20 	strtvc	r2, [sp], -r0, lsr #26
 5ec:	6f6d6566 	svcvs	0x006d6566
 5f0:	663d6564 	ldrtvs	r6, [sp], -r4, ror #10
 5f4:	6563726f 	strbvs	r7, [r3, #-623]!	; 0x26f
 5f8:	6e49000a 	cdpvs	0, 4, cr0, cr9, cr10, {0}
 5fc:	20747570 	rsbscs	r7, r4, r0, ror r5
 600:	6d6d6f43 	stclvs	15, cr6, [sp, #-268]!	; 0xfffffef4
 604:	73746e65 	cmnvc	r4, #1616	; 0x650
 608:	0000003a 	andeq	r0, r0, sl, lsr r0
 60c:	79616d00 	stmdbvc	r1!, {r8, sl, fp, sp, lr}^
 610:	65746562 	ldrbvs	r6, [r4, #-1378]!	; 0x562
 614:	6c616d72 	stclvs	13, cr6, [r1], #-456	; 0xfffffe38
 618:	32636f6c 	rsbcc	r6, r3, #108, 30	; 0x1b0
 61c:	00006f2e 	andeq	r6, r0, lr, lsr #30
 620:	204d5241 	subcs	r5, sp, r1, asr #4
 624:	6b6e694c 	blvs	1b9ab5c <ulAsmAPIPriorityMask+0x1b9aacc>
 628:	202c7265 	eorcs	r7, ip, r5, ror #4
 62c:	20312e34 	eorscs	r2, r1, r4, lsr lr
 630:	6975425b 	ldmdbvs	r5!, {r0, r1, r3, r4, r6, r9, lr}^
 634:	3820646c 	stmdacc	r0!, {r2, r3, r5, r6, sl, sp, lr}
 638:	0a5d3439 	beq	174d724 <ulAsmAPIPriorityMask+0x174d694>
 63c:	6d726100 	ldfvse	f6, [r2, #-0]
 640:	6b6e696c 	blvs	1b9abf8 <ulAsmAPIPriorityMask+0x1b9ab68>
 644:	702d2d20 	eorvc	r2, sp, r0, lsr #26
 648:	69747261 	ldmdbvs	r4!, {r0, r5, r6, r9, ip, sp, lr}^
 64c:	2d206c61 	stccs	12, cr6, [r0, #-388]!	; 0xfffffe7c
 650:	5f6f6e2d 	svcpl	0x006f6e2d
 654:	5f646461 	svcpl	0x00646461
 658:	6f6c6572 	svcvs	0x006c6572
 65c:	745f7363 	ldrbvc	r7, [pc], #-867	; 664 <ulAsmAPIPriorityMask+0x5d4>
 660:	6e755f6f 	cdpvs	15, 7, cr5, cr5, cr15, {3}
 664:	69666564 	stmdbvs	r6!, {r2, r5, r6, r8, sl, sp, lr}^
 668:	2064656e 	rsbcs	r6, r4, lr, ror #10
 66c:	6f6e2d2d 	svcvs	0x006e2d2d
 670:	6578655f 	ldrbvs	r6, [r8, #-1375]!	; 0x55f
 674:	61747363 	cmnvs	r4, r3, ror #6
 678:	2d206b63 	fstmdbxcs	r0!, {d6-d54}	;@ Deprecated
 67c:	5f6f6e2d 	svcpl	0x006f6e2d
 680:	656e6567 	strbvs	r6, [lr, #-1383]!	; 0x567
 684:	65746172 	ldrbvs	r6, [r4, #-370]!	; 0x172
 688:	70616d5f 	rsbvc	r6, r1, pc, asr sp
 68c:	676e6970 			; <UNDEFINED> instruction: 0x676e6970
 690:	6d79735f 	ldclvs	3, cr7, [r9, #-380]!	; 0xfffffe84
 694:	736c6f62 	cmnvc	ip, #392	; 0x188
 698:	642d2d20 	strtvs	r2, [sp], #-3360	; 0xd20
 69c:	5f676169 	svcpl	0x00676169
 6a0:	70707573 	rsbsvc	r7, r0, r3, ror r5
 6a4:	73736572 	cmnvc	r3, #478150656	; 0x1c800000
 6a8:	3436363d 	ldrtcc	r3, [r6], #-1597	; 0x63d
 6ac:	2d2d2032 	stccs	0, cr2, [sp, #-200]!	; 0xffffff38
 6b0:	3d757063 	ldclcc	0, cr7, [r5, #-396]!	; 0xfffffe74
 6b4:	52412d37 	subpl	r2, r1, #3520	; 0xdc0
 6b8:	662d2d20 	strtvs	r2, [sp], -r0, lsr #26
 6bc:	4e3d7570 	mrcmi	5, 1, r7, cr13, cr0, {3}
 6c0:	20656e6f 	rsbcs	r6, r5, pc, ror #28
 6c4:	6f6e2d2d 	svcvs	0x006e2d2d
 6c8:	616e755f 	cmnvs	lr, pc, asr r5
 6cc:	6e67696c 	cdpvs	9, 6, cr6, cr7, cr12, {3}
 6d0:	615f6465 	cmpvs	pc, r5, ror #8
 6d4:	73656363 	cmnvc	r5, #-1946157055	; 0x8c000001
 6d8:	2d2d2073 	stccs	0, cr2, [sp, #-460]!	; 0xfffffe34
 6dc:	7074756f 	rsbsvc	r7, r4, pc, ror #10
 6e0:	6d3d7475 	cfldrsvs	mvf7, [sp, #-468]!	; 0xfffffe2c
 6e4:	65627961 	strbvs	r7, [r2, #-2401]!	; 0x961
 6e8:	6d726574 	cfldr64vs	mvdx6, [r2, #-464]!	; 0xfffffe30
 6ec:	6f6c6c61 	svcvs	0x006c6c61
 6f0:	6f2e3263 	svcvs	0x002e3263
 6f4:	762d2d20 	strtvc	r2, [sp], -r0, lsr #26
 6f8:	6f6d6566 	svcvs	0x006d6566
 6fc:	663d6564 	ldrtvs	r6, [sp], -r4, ror #10
 700:	6563726f 	strbvs	r7, [r3, #-623]!	; 0x26f
 704:	6e49000a 	cdpvs	0, 4, cr0, cr9, cr10, {0}
 708:	20747570 	rsbscs	r7, r4, r0, ror r5
 70c:	6d6d6f43 	stclvs	15, cr6, [sp, #-268]!	; 0xfffffef4
 710:	73746e65 	cmnvc	r4, #1616	; 0x650
 714:	0000003a 	andeq	r0, r0, sl, lsr r0
 718:	00000000 	andeq	r0, r0, r0
